Trying to open 'C:\Users\root\Downloads\QuoteDB.exe'..
Loading PE information..
FileFormat: PE, Arch: Ia32
Using the Nasm syntax..

Wait a few seconds, rp++ is looking for gadgets..
in .text
2931 found.

A total of 2931 gadgets found.
0x004052b3: aad 0x31 ; ror byte [ecx+0x04C4832B], 0x0000005B ; pop esi ; pop edi ; pop ebp ; ret  ;  (1 found)
0x0040ac86: aad 0x89 ; ret  ;  (1 found)
0x00401842: aam 0x17 ; retn 0x0040 ;  (1 found)
0x0040abb2: aam 0x31 ; inc esp ; add byte [eax-0x2FDA0070], dl ; xor dword [eax+eax-0x70], eax ; nop  ; jmp dword [0x004431CC] ;  (1 found)
0x00405833: aam 0x31 ; ror byte [ebp+0x5E5BF465], 0x0000005F ; pop ebp ; ret  ;  (1 found)
0x00405834: aam 0x31 ; ror byte [ebp+0x5E5BF465], 0x0000005F ; pop ebp ; ret  ;  (1 found)
0x0040aa0a: aam 0x32 ; inc esp ; add byte [eax-0x2FDA0070], dl ; xor al, byte [eax+eax-0x70] ; nop  ; jmp dword [0x004432CC] ;  (1 found)
0x00404216: aas  ; add byte [eax], al ; add byte [ecx+0x5F5E5BF0], cl ; pop ebp ; ret  ;  (1 found)
0x00402555: aas  ; add esp, 0x14 ; mov eax, 0x00000001 ; pop ebx ; pop esi ; retn 0x000C ;  (1 found)
0x00409a9d: adc al, 0x00 ; add byte [eax], al ; add byte [ebx+0x5E5B10C4], al ; pop edi ; pop ebp ; ret  ;  (1 found)
0x0040514d: adc al, 0x01 ; add byte [eax], al ; add esp, 0x0C ; ret  ;  (1 found)
0x00409eb0: adc al, 0x0D ; add byte [eax], al ; sub esp, 0x04 ; add esp, 0x18 ; pop ebx ; ret  ;  (1 found)
0x0040ab32: adc al, 0x32 ; inc esp ; add byte [eax+0x1025FF90], dl ; xor al, byte [eax+eax-0x70] ; nop  ; jmp dword [0x0044320C] ;  (1 found)
0x00401f42: adc al, 0x33 ; inc esp ; add byte [eax+0x1025FF90], dl ; xor eax, dword [eax+eax-0x70] ; nop  ; jmp dword [0x0044330C] ;  (1 found)
0x0040a828: adc al, 0x5B ; pop esi ; pop edi ; pop ebp ; ret  ;  (1 found)
0x0040a89d: adc al, 0x5B ; pop esi ; pop edi ; pop ebp ; ret  ;  (1 found)
0x0040262c: adc al, 0x5B ; pop esi ; ret  ;  (1 found)
0x004026a7: adc al, 0x5B ; pop esi ; ret  ;  (1 found)
0x004032e7: adc al, 0x5B ; pop esi ; ret  ;  (1 found)
0x00402d52: adc al, 0x5B ; pop esi ; ret  ;  (1 found)
0x004051c6: adc al, 0x5B ; pop esi ; ret  ;  (1 found)
0x004051dd: adc al, 0x5B ; pop esi ; ret  ;  (1 found)
0x00402642: adc al, 0x89 ; pop ebx ; pop esi ; ret  ;  (1 found)
0x00402558: adc al, 0xB8 ; add dword [eax], eax ; add byte [eax], al ; pop ebx ; pop esi ; retn 0x000C ;  (1 found)
0x0040258a: adc al, 0xB8 ; add dword [eax], eax ; add byte [eax], al ; pop ebx ; pop esi ; retn 0x000C ;  (1 found)
0x0040772e: adc al, 0xE9 ; retn 0xFFFB ;  (1 found)
0x00402550: adc al, byte [ebx+0x3F7401F8] ; add esp, 0x14 ; mov eax, 0x00000001 ; pop ebx ; pop esi ; retn 0x000C ;  (1 found)
0x00402c1d: adc al, dh ; add al, 0x16 ; add byte [ebx+0x5E5B24C4], al ; ret  ;  (1 found)
0x004023e8: adc bh, dh ; retn 0x0000 ;  (1 found)
0x004024ef: adc byte [eax+0x00000001], bh ; add esp, 0x1C ; retn 0x000C ;  (1 found)
0x004032a2: adc byte [eax+0x00000001], bh ; pop ebx ; pop esi ; pop edi ; ret  ;  (1 found)
0x004040ac: adc byte [ebp-0x0F760B9B], cl ; pop ebx ; pop esi ; pop edi ; pop ebp ; ret  ;  (1 found)
0x0040291f: adc byte [ebx+0x5E5B4CC4], al ; pop edi ; pop ebp ; ret  ;  (1 found)
0x00409ade: adc byte [ebx+0x5E], bl ; pop edi ; pop ebp ; ret  ;  (1 found)
0x00409aa4: adc byte [ebx+0x5E], bl ; pop edi ; pop ebp ; ret  ;  (1 found)
0x00403c94: adc byte [ebx+0x5E], bl ; pop edi ; ret  ;  (1 found)
0x0040263f: adc byte [ebx-0x0F76EB3C], al ; pop ebx ; pop esi ; ret  ;  (1 found)
0x0040a0f3: adc byte [ebx-0x2776D33C], al ; pop ebx ; pop esi ; pop edi ; pop ebp ; ret  ;  (1 found)
0x0040a2eb: adc byte [ebx-0x7CC7DBBC], cl ; les ecx,  [ebx+ebx*2+0x5E] ; pop edi ; pop ebp ; ret  ;  (1 found)
0x00409dfe: adc byte [ebx-0x7CCBDBBC], cl ; les ecx,  [ebx+ebx*2+0x5E] ; pop edi ; pop ebp ; ret  ;  (1 found)
0x0040a749: adc byte [ebx-0x7CDBDBBC], cl ; les edi,  [ebx+ebx*2] ; pop esi ; pop edi ; pop ebp ; ret  ;  (1 found)
0x00401f4a: adc byte [ebx], dh ; inc esp ; add byte [eax+0x0C25FF90], dl ; xor eax, dword [eax+eax-0x70] ; nop  ; jmp dword [0x00443308] ;  (1 found)
0x00409be8: adc byte [ecx+0x5F5E5BF8], cl ; ret  ;  (1 found)
0x00403299: adc byte [ecx], dh ; rcr byte [ebx+0x5E], 0x0000005F ; ret  ;  (1 found)
0x00402ca8: adc byte [edi], cl ; xchg eax, esp ; rol dword [ebp-0x76288A2E], 0xFFFFFFD0 ; pop ebx ; pop esi ; ret  ;  (1 found)
0x0040ab3a: adc byte [edx], dh ; inc esp ; add byte [eax+0x0C25FF90], dl ; xor al, byte [eax+eax-0x70] ; nop  ; jmp dword [0x00443208] ;  (1 found)
0x0040a953: adc dword [ebx+0x5E5B1CC4], eax ; pop edi ; pop ebp ; ret  ;  (1 found)
0x004051bd: adc dword [ecx+eax], 0x00000000 ; add byte [edi-0x24], bh ; add esp, 0x14 ; pop ebx ; pop esi ; ret  ;  (1 found)
0x0040156e: adc eax, 0x0040FA60 ; leave  ; ret  ;  (1 found)
0x00409b1c: adc eax, 0x8B00768D ; or al, byte [ebp-0x7CF38A37] ; retn 0x8304 ;  (1 found)
0x00409be5: adc eax, dword [ebx-0x0776EF3C] ; pop ebx ; pop esi ; pop edi ; ret  ;  (1 found)
0x0040a032: adc esi, dword [ebx+ebx-0x7D] ; les ebx,  [eax] ; pop ebx ; ret  ;  (1 found)
0x00405948: add al, 0x00 ; add byte [eax], al ; add esp, 0x18 ; pop ebx ; ret  ;  (1 found)
0x0040111f: add al, 0x00 ; add byte [eax], al ; call eax ;  (1 found)
0x00405955: add al, 0x00 ; add byte [eax], al ; pop ebx ; ret  ;  (1 found)
0x004066a2: add al, 0x09 ; retn 0x0489 ;  (1 found)
0x00406516: add al, 0x09 ; retn 0xC689 ;  (1 found)
0x00402c1f: add al, 0x16 ; add byte [ebx+0x5E5B24C4], al ; ret  ;  (1 found)
0x0040111d: add al, 0x24 ; add al, 0x00 ; add byte [eax], al ; call eax ;  (1 found)
0x00401304: add al, 0x24 ; add al, byte [eax] ; add byte [eax], al ; call dword [0x00443248] ;  (1 found)
0x004011d1: add al, 0x24 ; add byte [eax], al ; add byte [eax], al ; call eax ;  (1 found)
0x004012e4: add al, 0x24 ; add dword [eax], eax ; add byte [eax], al ; call dword [0x00443248] ;  (1 found)
0x00401583: add al, 0x24 ; and cl, al ; inc eax ; add al, ch ; retn 0x0094 ;  (1 found)
0x00403a62: add al, 0x24 ; call edi ;  (1 found)
0x0040590a: add al, 0x24 ; insb  ; leave  ; inc eax ; add byte [ecx-0x17FBDBBC], cl ; call dword [eax+0x00] ;  (1 found)
0x0040109b: add al, 0x24 ; or byte [eax], al ; add byte [eax], al ; call eax ;  (1 found)
0x00401131: add al, 0x24 ; or eax, dword [eax] ; add byte [eax], al ; call eax ;  (1 found)
0x00401b37: add al, 0x24 ; pop esp ; retn 0x0040 ;  (1 found)
0x00401be3: add al, 0x24 ; push eax ; ret  ;  (1 found)
0x0040172d: add al, 0x24 ; xchg eax, edx ; rol dword [eax+0x00], 0xFFFFFFE8 ; sbb byte [ebx-0x36700000], dl ; ret  ;  (1 found)
0x0040ab52: add al, 0x32 ; inc esp ; add byte [eax+0x0025FF90], dl ; xor al, byte [eax+eax-0x70] ; nop  ; jmp dword [0x004431FC] ;  (1 found)
0x00401f62: add al, 0x33 ; inc esp ; add byte [eax+0x0025FF90], dl ; xor eax, dword [eax+eax-0x70] ; nop  ; jmp dword [0x004432FC] ;  (1 found)
0x0040a208: add al, 0x39 ; retn 0xF377 ;  (1 found)
0x00405226: add al, 0x5B ; pop esi ; pop edi ; pop ebp ; ret  ;  (1 found)
0x004052ba: add al, 0x5B ; pop esi ; pop edi ; pop ebp ; ret  ;  (1 found)
0x00409b6f: add al, 0x5B ; ret  ;  (1 found)
0x00409eb6: add al, 0x83 ; les ebx,  [eax] ; pop ebx ; ret  ;  (1 found)
0x0040a05e: add al, 0x83 ; les ebx,  [eax] ; pop ebx ; ret  ;  (1 found)
0x0040271e: add al, 0x83 ; les ebx,  [eax] ; xor eax, eax ; pop ebx ; ret  ;  (1 found)
0x0040ad62: add al, 0x83 ; les ebx,  [ebx+ebx*2] ; pop esi ; pop edi ; pop ebp ; ret  ;  (1 found)
0x00402629: add al, 0x83 ; les edx,  [ebx+ebx*2] ; pop esi ; ret  ;  (1 found)
0x0040397b: add al, 0x83 ; ret  ;  (1 found)
0x00408444: add al, 0x83 ; ret  ;  (1 found)
0x00409a56: add al, 0x83 ; retn 0xD304 ;  (1 found)
0x0040a519: add al, 0x83 ; retn 0xD304 ;  (1 found)
0x00409b28: add al, 0x83 ; shl byte [eax], 0x00000039 ; sal dword [edi-0x10], cl ; pop ebx ; ret  ;  (1 found)
0x00405946: add al, 0x85 ; add al, 0x00 ; add byte [eax], al ; add esp, 0x18 ; pop ebx ; ret  ;  (1 found)
0x0040185c: add al, 0x85 ; pushfd  ; retn 0x0040 ;  (1 found)
0x00403971: add al, 0x85 ; sal byte [edi+edx-0x75], 0x00000045 ; mov esp, 0x8304408B ; ret  ;  (1 found)
0x004026f4: add al, 0x85 ; sal byte [edi+edx-0x75], cl ; add bh, byte [ecx] ; ret  ;  (1 found)
0x004026a2: add al, 0x89 ; add esp, 0x14 ; pop ebx ; pop esi ; ret  ;  (1 found)
0x004066f0: add al, 0x89 ; retn 0xC031 ;  (1 found)
0x0040616f: add al, 0x89 ; retn 0xE083 ;  (1 found)
0x0040260e: add al, 0x89 ; xor al, 0x24 ; call eax ;  (1 found)
0x00401e5e: add al, 0xB8 ; add byte [eax], al ; add byte [eax], al ; mov ebx, dword [ebp-0x04] ; leave  ; ret  ;  (1 found)
0x00401e84: add al, 0xC3 ; add edx, ecx ; ret  ;  (1 found)
0x00401581: add al, 0xC7 ; add al, 0x24 ; and cl, al ; inc eax ; add al, ch ; retn 0x0094 ;  (1 found)
0x00401b35: add al, 0xC7 ; add al, 0x24 ; pop esp ; retn 0x0040 ;  (1 found)
0x0040172b: add al, 0xC7 ; add al, 0x24 ; xchg eax, edx ; rol dword [eax+0x00], 0xFFFFFFE8 ; sbb byte [ebx-0x36700000], dl ; ret  ;  (1 found)
0x0040145b: add al, 0xC9 ; ret  ;  (1 found)
0x00405913: add al, 0xE8 ; call dword [eax+0x00] ;  (1 found)
0x00402386: add al, 0xF7 ; retn 0x0000 ;  (1 found)
0x00405e62: add al, 0xF7 ; retn 0x01C0 ;  (1 found)
0x00402515: add al, byte [eax] ; add byte [eax+0x00000001], bh ; add esp, 0x1C ; retn 0x000C ;  (1 found)
0x00401306: add al, byte [eax] ; add byte [eax], al ; call dword [0x00443248] ;  (1 found)
0x004011cc: add al, byte [eax] ; add byte [eax], al ; mov dword [esp], 0x00000000 ; call eax ;  (1 found)
0x00407d9b: add al, byte [eax] ; add byte [eax], al ; pop ebx ; pop esi ; ret  ;  (1 found)
0x0040242b: add al, byte [eax] ; add byte [ecx], cl ; add eax, 0x0040F024 ; pop ebx ; rep ret  ;  (1 found)
0x0040670a: add al, byte [eax] ; add byte [edi], cl ; movsb  ; retn 0x0101 ;  (1 found)
0x0040670b: add al, byte [eax] ; add byte [edi], cl ; movsb  ; retn 0x0101 ;  (1 found)
0x00407db3: add al, byte [ebx+0x01B834C4] ; add byte [eax], al ; add byte [ebx+0x5E], bl ; ret  ;  (1 found)
0x00409f14: add al, ch ; mov dh, 0x0C ; add byte [eax], al ; sub esp, 0x04 ; add esp, 0x1C ; ret  ;  (1 found)
0x00406029: add al, ch ; mov eax, dword [0x83FFFFF4] ; ret  ;  (1 found)
0x00401588: add al, ch ; retn 0x0094 ;  (1 found)
0x00401c0c: add al, ch ; retn 0xFFF8 ;  (1 found)
0x0040293a: add al, ch ; sar dh, 0xFFFFFFFF ; jmp dword [ecx+0x0040F05C] ;  (1 found)
0x00401732: add al, ch ; sbb byte [ebx-0x36700000], dl ; ret  ;  (1 found)
0x00402621: add al, ch ; xor dword [ebp-0x137D0000], eax ; add al, 0x83 ; les edx,  [ebx+ebx*2] ; pop esi ; ret  ;  (1 found)
0x004011cf: add bh, al ; add al, 0x24 ; add byte [eax], al ; add byte [eax], al ; call eax ;  (1 found)
0x004081ab: add bh, al ; add byte [edx], ch ; add byte [eax], al ; add byte [eax-0x00000001], bh ; add esp, 0x4C ; ret  ;  (1 found)
0x004051d4: add bh, al ; add byte [esi], dl ; add byte [eax], al ; add byte [ebx+0x5E5B14C4], al ; ret  ;  (1 found)
0x0040183f: add bh, al ; inc ebp ; aam 0x17 ; retn 0x0040 ;  (1 found)
0x00401838: add bh, al ; inc ebp ; fmul dword [ebx] ; retn 0x0040 ;  (1 found)
0x0040131f: add bh, bh ; and eax, 0x00443278 ; lea esi, dword [esi+0x00] ; lea edi, dword [edi+0x00000000] ; jmp dword [0x00443268] ;  (1 found)
0x004026fa: add bh, byte [ecx] ; ret  ;  (1 found)
0x00405de1: add bh, byte [ecx] ; ret  ;  (1 found)
0x00402420: add bh, dh ; retn 0x0000 ;  (1 found)
0x0040623b: add bl, ch ; and dword [esi-0x70], 0xFFFFFF89 ; retn 0x448B ;  (1 found)
0x004025b0: add bl, ch ; mov dword [0x0000B68D], eax ; add byte [eax], al ; lea edi, dword [edi+0x00000000] ; xor eax, eax ; ret  ;  (1 found)
0x00403be9: add bl, ch ; retn 0x748D ;  (1 found)
0x0040500c: add bl, ch ; retn 0xCCE8 ;  (1 found)
0x00401f25: add byte [eax+0x00000000], bh ; leave  ; ret  ;  (1 found)
0x004027c5: add byte [eax+0x00000001], bh ; add esp, 0x1C ; ret  ;  (1 found)
0x00402517: add byte [eax+0x00000001], bh ; add esp, 0x1C ; retn 0x000C ;  (1 found)
0x0040ab55: add byte [eax+0x0025FF90], dl ; xor al, byte [eax+eax-0x70] ; nop  ; jmp dword [0x004431FC] ;  (1 found)
0x00401f65: add byte [eax+0x0025FF90], dl ; xor eax, dword [eax+eax-0x70] ; nop  ; jmp dword [0x004432FC] ;  (1 found)
0x0040ab4d: add byte [eax+0x0425FF90], dl ; xor al, byte [eax+eax-0x70] ; nop  ; jmp dword [0x00443200] ;  (1 found)
0x00401f5d: add byte [eax+0x0425FF90], dl ; xor eax, dword [eax+eax-0x70] ; nop  ; jmp dword [0x00443300] ;  (1 found)
0x0040ab45: add byte [eax+0x0825FF90], dl ; xor al, byte [eax+eax-0x70] ; nop  ; jmp dword [0x00443204] ;  (1 found)
0x00401f55: add byte [eax+0x0825FF90], dl ; xor eax, dword [eax+eax-0x70] ; nop  ; jmp dword [0x00443304] ;  (1 found)
0x0040ab3d: add byte [eax+0x0C25FF90], dl ; xor al, byte [eax+eax-0x70] ; nop  ; jmp dword [0x00443208] ;  (1 found)
0x00401f4d: add byte [eax+0x0C25FF90], dl ; xor eax, dword [eax+eax-0x70] ; nop  ; jmp dword [0x00443308] ;  (1 found)
0x0040ab35: add byte [eax+0x1025FF90], dl ; xor al, byte [eax+eax-0x70] ; nop  ; jmp dword [0x0044320C] ;  (1 found)
0x00401f45: add byte [eax+0x1025FF90], dl ; xor eax, dword [eax+eax-0x70] ; nop  ; jmp dword [0x0044330C] ;  (1 found)
0x0040ab2d: add byte [eax+0x1425FF90], dl ; xor al, byte [eax+eax-0x70] ; nop  ; jmp dword [0x00443210] ;  (1 found)
0x00401f3d: add byte [eax+0x1425FF90], dl ; xor eax, dword [eax+eax-0x70] ; nop  ; jmp dword [0x00443310] ;  (1 found)
0x0040ab25: add byte [eax+0x1825FF90], dl ; xor al, byte [eax+eax-0x70] ; nop  ; jmp dword [0x00443214] ;  (1 found)
0x00401f35: add byte [eax+0x1825FF90], dl ; xor eax, dword [eax+eax-0x70] ; nop  ; jmp dword [0x00443314] ;  (1 found)
0x0040ab1d: add byte [eax+0x1C25FF90], dl ; xor al, byte [eax+eax-0x70] ; nop  ; jmp dword [0x00443218] ;  (1 found)
0x0040ab15: add byte [eax+0x2025FF90], dl ; xor al, byte [eax+eax-0x70] ; nop  ; jmp dword [0x0044321C] ;  (1 found)
0x0040ab0d: add byte [eax+0x2425FF90], dl ; xor al, byte [eax+eax-0x70] ; nop  ; jmp dword [0x00443220] ;  (1 found)
0x0040ab05: add byte [eax+0x3825FF90], dl ; xor al, byte [eax+eax-0x70] ; nop  ; jmp dword [0x00443224] ;  (1 found)
0x0040aafd: add byte [eax+0x4025FF90], dl ; xor al, byte [eax+eax-0x70] ; nop  ; jmp dword [0x00443238] ;  (1 found)
0x0040aaf5: add byte [eax+0x4425FF90], dl ; xor al, byte [eax+eax-0x70] ; nop  ; jmp dword [0x00443240] ;  (1 found)
0x0040aaed: add byte [eax+0x4C25FF90], dl ; xor al, byte [eax+eax-0x70] ; nop  ; jmp dword [0x00443244] ;  (1 found)
0x0040aae5: add byte [eax+0x5025FF90], dl ; xor al, byte [eax+eax-0x70] ; nop  ; jmp dword [0x0044324C] ;  (1 found)
0x0040aadd: add byte [eax+0x5425FF90], dl ; xor al, byte [eax+eax-0x70] ; nop  ; jmp dword [0x00443250] ;  (1 found)
0x00402b36: add byte [eax+0x59], bl ; ret  ;  (1 found)
0x00401b64: add byte [eax+0x5BF4658D], dl ; pop esi ; pop edi ; pop ebp ; ret  ;  (1 found)
0x0040aad5: add byte [eax+0x5C25FF90], dl ; xor al, byte [eax+eax-0x70] ; nop  ; jmp dword [0x00443254] ;  (1 found)
0x0040aacd: add byte [eax+0x6425FF90], dl ; xor al, byte [eax+eax-0x70] ; nop  ; jmp dword [0x0044325C] ;  (1 found)
0x0040aac5: add byte [eax+0x7025FF90], dl ; xor al, byte [eax+eax-0x70] ; nop  ; jmp dword [0x00443264] ;  (1 found)
0x0040aabd: add byte [eax+0x7425FF90], dl ; xor al, byte [eax+eax-0x70] ; nop  ; jmp dword [0x00443270] ;  (1 found)
0x00402425: add byte [eax+0x74], al ; add eax, 0x0002000D ; add byte [ecx], cl ; add eax, 0x0040F024 ; pop ebx ; rep ret  ;  (1 found)
0x0040aab5: add byte [eax+0x7C25FF90], dl ; xor al, byte [eax+eax-0x70] ; nop  ; jmp dword [0x00443274] ;  (1 found)
0x004081b1: add byte [eax-0x00000001], bh ; add esp, 0x4C ; ret  ;  (1 found)
0x00401f6d: add byte [eax-0x03DA0070], dl ; xor al, byte [eax+eax-0x70] ; nop  ; jmp dword [0x004432F8] ;  (1 found)
0x0040ab5d: add byte [eax-0x03DA0070], dl ; xor dword [eax+eax-0x70], eax ; nop  ; jmp dword [0x004431F8] ;  (1 found)
0x00401f75: add byte [eax-0x07DA0070], dl ; xor al, byte [eax+eax-0x70] ; nop  ; jmp dword [0x004432F4] ;  (1 found)
0x0040ab65: add byte [eax-0x07DA0070], dl ; xor dword [eax+eax-0x70], eax ; nop  ; jmp dword [0x004431F4] ;  (1 found)
0x00401f7d: add byte [eax-0x0BDA0070], dl ; xor al, byte [eax+eax-0x70] ; nop  ; jmp dword [0x004432F0] ;  (1 found)
0x0040ab6d: add byte [eax-0x0BDA0070], dl ; xor dword [eax+eax-0x70], eax ; nop  ; jmp dword [0x004431F0] ;  (1 found)
0x0040ab75: add byte [eax-0x0FDA0070], dl ; xor dword [eax+eax-0x70], eax ; nop  ; jmp dword [0x004431EC] ;  (1 found)
0x0040ab7d: add byte [eax-0x13DA0070], dl ; xor dword [eax+eax-0x70], eax ; nop  ; jmp dword [0x004431E8] ;  (1 found)
0x00404ed4: add byte [eax-0x168B7F80], 0xFFFFFFF7 ; retn 0x8080 ;  (1 found)
0x00404f21: add byte [eax-0x168B7F80], 0xFFFFFFF7 ; retn 0x8080 ;  (1 found)
0x0040ab85: add byte [eax-0x17DA0070], dl ; xor dword [eax+eax-0x70], eax ; nop  ; jmp dword [0x004431E4] ;  (1 found)
0x0040a9e5: add byte [eax-0x1BDA0070], dl ; xor al, byte [eax+eax-0x70] ; nop  ; jmp dword [0x004432E0] ;  (1 found)
0x0040ab8d: add byte [eax-0x1BDA0070], dl ; xor dword [eax+eax-0x70], eax ; nop  ; jmp dword [0x004431E0] ;  (1 found)
0x0040a9ed: add byte [eax-0x1FDA0070], dl ; xor al, byte [eax+eax-0x70] ; nop  ; jmp dword [0x004432DC] ;  (1 found)
0x0040ab95: add byte [eax-0x1FDA0070], dl ; xor dword [eax+eax-0x70], eax ; nop  ; jmp dword [0x004431DC] ;  (1 found)
0x0040a9f5: add byte [eax-0x23DA0070], dl ; xor al, byte [eax+eax-0x70] ; nop  ; jmp dword [0x004432D8] ;  (1 found)
0x0040ab9d: add byte [eax-0x23DA0070], dl ; xor dword [eax+eax-0x70], eax ; nop  ; jmp dword [0x004431D8] ;  (1 found)
0x0040a9fd: add byte [eax-0x27DA0070], dl ; xor al, byte [eax+eax-0x70] ; nop  ; jmp dword [0x004432D4] ;  (1 found)
0x0040aba5: add byte [eax-0x27DA0070], dl ; xor dword [eax+eax-0x70], eax ; nop  ; jmp dword [0x004431D4] ;  (1 found)
0x0040aa05: add byte [eax-0x2BDA0070], dl ; xor al, byte [eax+eax-0x70] ; nop  ; jmp dword [0x004432D0] ;  (1 found)
0x0040abad: add byte [eax-0x2BDA0070], dl ; xor dword [eax+eax-0x70], eax ; nop  ; jmp dword [0x004431D0] ;  (1 found)
0x0040aa0d: add byte [eax-0x2FDA0070], dl ; xor al, byte [eax+eax-0x70] ; nop  ; jmp dword [0x004432CC] ;  (1 found)
0x0040abb5: add byte [eax-0x2FDA0070], dl ; xor dword [eax+eax-0x70], eax ; nop  ; jmp dword [0x004431CC] ;  (1 found)
0x0040aa15: add byte [eax-0x33DA0070], dl ; xor al, byte [eax+eax-0x70] ; nop  ; jmp dword [0x004432C8] ;  (1 found)
0x0040abbd: add byte [eax-0x33DA0070], dl ; xor dword [eax+eax-0x70], eax ; nop  ; jmp dword [0x004431C8] ;  (1 found)
0x0040aa1d: add byte [eax-0x37DA0070], dl ; xor al, byte [eax+eax-0x70] ; nop  ; jmp dword [0x004432C4] ;  (1 found)
0x0040abc5: add byte [eax-0x37DA0070], dl ; xor dword [eax+eax-0x70], eax ; nop  ; jmp dword [0x004431C4] ;  (1 found)
0x0040aa25: add byte [eax-0x3BDA0070], dl ; xor al, byte [eax+eax-0x70] ; nop  ; jmp dword [0x004432C0] ;  (1 found)
0x0040aa2d: add byte [eax-0x3FDA0070], dl ; xor al, byte [eax+eax-0x70] ; nop  ; jmp dword [0x004432BC] ;  (1 found)
0x0040aa35: add byte [eax-0x43DA0070], dl ; xor al, byte [eax+eax-0x70] ; nop  ; jmp dword [0x004432B8] ;  (1 found)
0x0040aa3d: add byte [eax-0x47DA0070], dl ; xor al, byte [eax+eax-0x70] ; nop  ; jmp dword [0x004432B4] ;  (1 found)
0x0040aa45: add byte [eax-0x4BDA0070], dl ; xor al, byte [eax+eax-0x70] ; nop  ; jmp dword [0x004432B0] ;  (1 found)
0x0040aa4d: add byte [eax-0x4FDA0070], dl ; xor al, byte [eax+eax-0x70] ; nop  ; jmp dword [0x004432AC] ;  (1 found)
0x0040aa55: add byte [eax-0x53DA0070], dl ; xor al, byte [eax+eax-0x70] ; nop  ; jmp dword [0x004432A8] ;  (1 found)
0x0040aa5d: add byte [eax-0x57DA0070], dl ; xor al, byte [eax+eax-0x70] ; nop  ; jmp dword [0x004432A4] ;  (1 found)
0x0040aa65: add byte [eax-0x5BDA0070], dl ; xor al, byte [eax+eax-0x70] ; nop  ; jmp dword [0x004432A0] ;  (1 found)
0x0040aa6d: add byte [eax-0x5FDA0070], dl ; xor al, byte [eax+eax-0x70] ; nop  ; jmp dword [0x0044329C] ;  (1 found)
0x0040aa75: add byte [eax-0x63DA0070], dl ; xor al, byte [eax+eax-0x70] ; nop  ; jmp dword [0x00443298] ;  (1 found)
0x0040aa7d: add byte [eax-0x67DA0070], dl ; xor al, byte [eax+eax-0x70] ; nop  ; jmp dword [0x00443294] ;  (1 found)
0x0040aa85: add byte [eax-0x6BDA0070], dl ; xor al, byte [eax+eax-0x70] ; nop  ; jmp dword [0x00443290] ;  (1 found)
0x0040aa8d: add byte [eax-0x6FDA0070], dl ; xor al, byte [eax+eax-0x70] ; nop  ; jmp dword [0x0044328C] ;  (1 found)
0x0040aa95: add byte [eax-0x73DA0070], dl ; xor al, byte [eax+eax-0x70] ; nop  ; jmp dword [0x00443288] ;  (1 found)
0x0040aa9d: add byte [eax-0x77DA0070], dl ; xor al, byte [eax+eax-0x70] ; nop  ; jmp dword [0x00443284] ;  (1 found)
0x0040aaa5: add byte [eax-0x7BDA0070], dl ; xor al, byte [eax+eax-0x70] ; nop  ; jmp dword [0x00443280] ;  (1 found)
0x0040aaad: add byte [eax-0x7FDA0070], dl ; xor al, byte [eax+eax-0x70] ; nop  ; jmp dword [0x0044327C] ;  (1 found)
0x00406027: add byte [eax], al ; add al, ch ; mov eax, dword [0x83FFFFF4] ; ret  ;  (1 found)
0x004011cd: add byte [eax], al ; add bh, al ; add al, 0x24 ; add byte [eax], al ; add byte [eax], al ; call eax ;  (1 found)
0x0040131d: add byte [eax], al ; add bh, bh ; and eax, 0x00443278 ; lea esi, dword [esi+0x00] ; lea edi, dword [edi+0x00000000] ; jmp dword [0x00443268] ;  (1 found)
0x00406239: add byte [eax], al ; add bl, ch ; and dword [esi-0x70], 0xFFFFFF89 ; retn 0x448B ;  (1 found)
0x00403be7: add byte [eax], al ; add bl, ch ; retn 0x748D ;  (1 found)
0x0040500a: add byte [eax], al ; add bl, ch ; retn 0xCCE8 ;  (1 found)
0x00401f23: add byte [eax], al ; add byte [eax+0x00000000], bh ; leave  ; ret  ;  (1 found)
0x004027c3: add byte [eax], al ; add byte [eax+0x00000001], bh ; add esp, 0x1C ; ret  ;  (1 found)
0x004081af: add byte [eax], al ; add byte [eax-0x00000001], bh ; add esp, 0x4C ; ret  ;  (1 found)
0x0040512d: add byte [eax], al ; add byte [eax], al ; add byte [eax], al ; add esp, 0x18 ; pop ebx ; ret  ;  (1 found)
0x0040512f: add byte [eax], al ; add byte [eax], al ; add esp, 0x18 ; pop ebx ; ret  ;  (1 found)
0x004011d3: add byte [eax], al ; add byte [eax], al ; call eax ;  (1 found)
0x0040132c: add byte [eax], al ; add byte [eax], al ; jmp dword [0x00443268] ;  (1 found)
0x0040131c: add byte [eax], al ; add byte [eax], al ; jmp dword [0x00443278] ;  (1 found)
0x004025b5: add byte [eax], al ; add byte [eax], al ; lea edi, dword [edi+0x00000000] ; xor eax, eax ; ret  ;  (1 found)
0x00401f27: add byte [eax], al ; add byte [eax], al ; leave  ; ret  ;  (1 found)
0x004011c4: add byte [eax], al ; add byte [eax], al ; mov dword [esp+0x04], 0x00000002 ; mov dword [esp], 0x00000000 ; call eax ;  (1 found)
0x00401e60: add byte [eax], al ; add byte [eax], al ; mov ebx, dword [ebp-0x04] ; leave  ; ret  ;  (1 found)
0x004012fc: add byte [eax], al ; add byte [eax], al ; sub esp, 0x1C ; mov dword [esp], 0x00000002 ; call dword [0x00443248] ;  (1 found)
0x0040104c: add byte [eax], al ; add byte [eax], al ; xor eax, eax ; add esp, 0x1C ; retn 0x0004 ;  (1 found)
0x0040104b: add byte [eax], al ; add byte [eax], al ; xor eax, eax ; add esp, 0x1C ; retn 0x0004 ;  (1 found)
0x004025bc: add byte [eax], al ; add byte [eax], al ; xor eax, eax ; ret  ;  (1 found)
0x00402d5c: add byte [eax], al ; add byte [eax], al ; xor eax, eax ; ret  ;  (1 found)
0x004058c7: add byte [eax], al ; add byte [ebp+0x000000BF], cl ; add byte [ebx-0x77], dl ; ret  ;  (1 found)
0x00401046: add byte [eax], al ; add byte [ebp+0x000026B4], cl ; add byte [eax], al ; xor eax, eax ; add esp, 0x1C ; retn 0x0004 ;  (1 found)
0x004025b6: add byte [eax], al ; add byte [ebp+0x000027BC], cl ; add byte [eax], al ; xor eax, eax ; ret  ;  (1 found)
0x00401093: add byte [eax], al ; add byte [ebp-0x38498B40], al ; add al, 0x24 ; or byte [eax], al ; add byte [eax], al ; call eax ;  (1 found)
0x00407d94: add byte [eax], al ; add byte [ebx+0x02B834C4], al ; add byte [eax], al ; add byte [ebx+0x5E], bl ; ret  ;  (1 found)
0x00409a9f: add byte [eax], al ; add byte [ebx+0x5E5B10C4], al ; pop edi ; pop ebp ; ret  ;  (1 found)
0x004051d8: add byte [eax], al ; add byte [ebx+0x5E5B14C4], al ; ret  ;  (1 found)
0x00409fb9: add byte [eax], al ; add byte [ebx+0x5E5B20C4], al ; pop edi ; ret  ;  (1 found)
0x00405287: add byte [eax], al ; add byte [ebx+0x5E], bl ; pop edi ; pop ebp ; ret  ;  (1 found)
0x0040524a: add byte [eax], al ; add byte [ebx+0x5E], bl ; pop edi ; pop ebp ; ret  ;  (1 found)
0x004084e7: add byte [eax], al ; add byte [ebx+0x5E], bl ; pop edi ; pop ebp ; ret  ;  (1 found)
0x0040851f: add byte [eax], al ; add byte [ebx+0x5E], bl ; pop edi ; pop ebp ; ret  ;  (1 found)
0x00408abb: add byte [eax], al ; add byte [ebx+0x5E], bl ; pop edi ; pop ebp ; ret  ;  (1 found)
0x0040855f: add byte [eax], al ; add byte [ebx+0x5E], bl ; pop edi ; pop ebp ; ret  ;  (1 found)
0x004032a5: add byte [eax], al ; add byte [ebx+0x5E], bl ; pop edi ; ret  ;  (1 found)
0x00407db9: add byte [eax], al ; add byte [ebx+0x5E], bl ; ret  ;  (1 found)
0x00407d9c: add byte [eax], al ; add byte [ebx+0x5E], bl ; ret  ;  (1 found)
0x0040255b: add byte [eax], al ; add byte [ebx+0x5E], bl ; retn 0x000C ;  (1 found)
0x0040258d: add byte [eax], al ; add byte [ebx+0x5E], bl ; retn 0x000C ;  (1 found)
0x00401e61: add byte [eax], al ; add byte [ebx-0x3C3603A3], cl ; or eax, esp ; ret  ;  (1 found)
0x00405949: add byte [eax], al ; add byte [ebx-0x3CA4E73C], al ; add esp, 0x18 ; mov eax, 0x00000004 ; pop ebx ; ret  ;  (1 found)
0x00403294: add byte [eax], al ; add byte [ebx-0x3FCEEF3C], al ; pop ebx ; pop esi ; pop edi ; ret  ;  (1 found)
0x004058cd: add byte [eax], al ; add byte [ebx-0x77], dl ; ret  ;  (1 found)
0x004081f2: add byte [eax], al ; add byte [ecx+0x1BE82404], cl ; sub byte [eax], al ; add byte [ecx-0x7A3FCE3E], cl ; sal byte [ebx+ecx-0x7D], cl ; retn 0x8901 ;  (1 found)
0x004081f1: add byte [eax], al ; add byte [ecx+0x1BE82404], cl ; sub byte [eax], al ; add byte [ecx-0x7A3FCE3E], cl ; sal byte [ebx+ecx-0x7D], cl ; retn 0x8901 ;  (1 found)
0x004080bb: add byte [eax], al ; add byte [ecx+0x52E82404], cl ; sub dword [eax], eax ; add byte [ecx-0x7A3FCE3E], cl ; sal byte [ebx+ecx-0x7D], cl ; retn 0x8901 ;  (1 found)
0x004080ba: add byte [eax], al ; add byte [ecx+0x52E82404], cl ; sub dword [eax], eax ; add byte [ecx-0x7A3FCE3E], cl ; sal byte [ebx+ecx-0x7D], cl ; retn 0x8901 ;  (1 found)
0x00407eb3: add byte [eax], al ; add byte [ecx+0x59E82404], cl ; sub eax, dword [eax] ; add byte [ecx-0x7A3FCE3E], cl ; sal byte [ebx+ecx-0x7D], cl ; retn 0x8901 ;  (1 found)
0x00407eb4: add byte [eax], al ; add byte [ecx+0x59E82404], cl ; sub eax, dword [eax] ; add byte [ecx-0x7A3FCE3E], cl ; sal byte [ebx+ecx-0x7D], cl ; retn 0x8901 ;  (1 found)
0x00404217: add byte [eax], al ; add byte [ecx+0x5F5E5BF0], cl ; pop ebp ; ret  ;  (1 found)
0x00402ce2: add byte [eax], al ; add byte [ecx-0x3CA1A430], cl ; xor edx, edx ; mov eax, edx ; ret  ;  (1 found)
0x004082bd: add byte [eax], al ; add byte [ecx], al ; ret  ;  (1 found)
0x00408e4a: add byte [eax], al ; add byte [ecx], ch ; retn 0x5489 ;  (1 found)
0x00408df2: add byte [eax], al ; add byte [ecx], ch ; retn 0xE1E9 ;  (1 found)
0x00409b99: add byte [eax], al ; add byte [ecx], dh ; jmp dword [esi-0x70] ;  (1 found)
0x00405206: add byte [eax], al ; add byte [edi], cl ; mov dh, 0xC0 ; lea ebp, dword [edx+0x01] ; jmp dword [0x0040C8A4+eax*4] ;  (1 found)
0x00401f28: add byte [eax], al ; add cl, cl ; ret  ;  (1 found)
0x0040a32e: add byte [eax], al ; add dh, dh ; ret  ;  (1 found)
0x00404d61: add byte [eax], al ; add esp, 0x00000154 ; mov eax, esi ; pop ebx ; pop esi ; ret  ;  (1 found)
0x00404e65: add byte [eax], al ; add esp, 0x00000154 ; mov eax, esi ; pop ebx ; pop esi ; ret  ;  (1 found)
0x00404e45: add byte [eax], al ; add esp, 0x00000154 ; mov eax, esi ; pop ebx ; pop esi ; ret  ;  (1 found)
0x0040514f: add byte [eax], al ; add esp, 0x0C ; ret  ;  (1 found)
0x004032e3: add byte [eax], al ; add esp, 0x14 ; pop ebx ; pop esi ; ret  ;  (1 found)
0x004051d9: add byte [eax], al ; add esp, 0x14 ; pop ebx ; pop esi ; ret  ;  (1 found)
0x0040510a: add byte [eax], al ; add esp, 0x18 ; pop ebx ; ret  ;  (1 found)
0x00405131: add byte [eax], al ; add esp, 0x18 ; pop ebx ; ret  ;  (1 found)
0x0040594a: add byte [eax], al ; add esp, 0x18 ; pop ebx ; ret  ;  (1 found)
0x0040597a: add byte [eax], al ; add esp, 0x18 ; pop ebx ; ret  ;  (1 found)
0x004027c9: add byte [eax], al ; add esp, 0x1C ; ret  ;  (1 found)
0x0040277f: add byte [eax], al ; add esp, 0x1C ; ret  ;  (1 found)
0x00402bd5: add byte [eax], al ; add esp, 0x1C ; ret  ;  (1 found)
0x0040251b: add byte [eax], al ; add esp, 0x1C ; retn 0x000C ;  (1 found)
0x004024f3: add byte [eax], al ; add esp, 0x1C ; retn 0x000C ;  (1 found)
0x00409fba: add byte [eax], al ; add esp, 0x20 ; pop ebx ; pop esi ; pop edi ; ret  ;  (1 found)
0x00402c52: add byte [eax], al ; add esp, 0x24 ; pop ebx ; pop esi ; ret  ;  (1 found)
0x00407d95: add byte [eax], al ; add esp, 0x34 ; mov eax, 0x00000002 ; pop ebx ; pop esi ; ret  ;  (1 found)
0x004012d9: add byte [eax], al ; add esp, 0x3C ; ret  ;  (1 found)
0x004063ff: add byte [eax], al ; add esp, 0x40 ; pop ebx ; pop esi ; pop edi ; ret  ;  (1 found)
0x0040643a: add byte [eax], al ; add esp, 0x40 ; pop ebx ; pop esi ; pop edi ; ret  ;  (1 found)
0x00406228: add byte [eax], al ; add esp, 0x44 ; pop ebx ; pop esi ; ret  ;  (1 found)
0x00406253: add byte [eax], al ; add esp, 0x44 ; pop ebx ; pop esi ; ret  ;  (1 found)
0x004062f4: add byte [eax], al ; add esp, 0x44 ; pop ebx ; pop esi ; ret  ;  (1 found)
0x00406324: add byte [eax], al ; add esp, 0x44 ; pop ebx ; pop esi ; ret  ;  (1 found)
0x00405453: add byte [eax], al ; add esp, 0x48 ; pop ebx ; ret  ;  (1 found)
0x00408143: add byte [eax], al ; add esp, 0x4C ; ret  ;  (1 found)
0x00401308: add byte [eax], al ; call dword [0x00443248] ;  (1 found)
0x004012e8: add byte [eax], al ; call dword [0x00443248] ;  (1 found)
0x0040109f: add byte [eax], al ; call eax ;  (1 found)
0x00401135: add byte [eax], al ; call eax ;  (1 found)
0x004011d5: add byte [eax], al ; call eax ;  (1 found)
0x00401121: add byte [eax], al ; call eax ;  (1 found)
0x004083dd: add byte [eax], al ; jmp dword [0x0040CB40+eax*4] ;  (1 found)
0x0040132e: add byte [eax], al ; jmp dword [0x00443268] ;  (1 found)
0x0040131e: add byte [eax], al ; jmp dword [0x00443278] ;  (1 found)
0x004025b7: add byte [eax], al ; lea edi, dword [edi+0x00000000] ; xor eax, eax ; ret  ;  (1 found)
0x00401047: add byte [eax], al ; lea esi, dword [esi+0x00000000] ; xor eax, eax ; add esp, 0x1C ; retn 0x0004 ;  (1 found)
0x004015c4: add byte [eax], al ; leave  ; ret  ;  (1 found)
0x00401f29: add byte [eax], al ; leave  ; ret  ;  (1 found)
0x0040a17c: add byte [eax], al ; mov dword [eax+0x14], edx ; add esp, 0x1C ; ret  ;  (1 found)
0x00405104: add byte [eax], al ; mov dword [eax], 0x00000009 ; add esp, 0x18 ; pop ebx ; ret  ;  (1 found)
0x004051d3: add byte [eax], al ; mov dword [eax], 0x00000016 ; add esp, 0x14 ; pop ebx ; pop esi ; ret  ;  (1 found)
0x004081aa: add byte [eax], al ; mov dword [eax], 0x0000002A ; mov eax, 0xFFFFFFFF ; add esp, 0x4C ; ret  ;  (1 found)
0x00409b66: add byte [eax], al ; mov dword [eax], ebx ; add esp, 0x18 ; add eax, 0x04 ; pop ebx ; ret  ;  (1 found)
0x004011c6: add byte [eax], al ; mov dword [esp+0x04], 0x00000002 ; mov dword [esp], 0x00000000 ; call eax ;  (1 found)
0x004011ce: add byte [eax], al ; mov dword [esp], 0x00000000 ; call eax ;  (1 found)
0x00401f24: add byte [eax], al ; mov eax, 0x00000000 ; leave  ; ret  ;  (1 found)
0x004027c4: add byte [eax], al ; mov eax, 0x00000001 ; add esp, 0x1C ; ret  ;  (1 found)
0x00402516: add byte [eax], al ; mov eax, 0x00000001 ; add esp, 0x1C ; retn 0x000C ;  (1 found)
0x004081b0: add byte [eax], al ; mov eax, 0xFFFFFFFF ; add esp, 0x4C ; ret  ;  (1 found)
0x00401859: add byte [eax], al ; mov eax, dword [0x0040C29C+eax*4] ; jmp eax ;  (1 found)
0x00401563: add byte [eax], al ; mov eax, dword [0x0040FA60] ; lea edx, dword [eax+0x01] ; mov dword [0x0040FA60], edx ; leave  ; ret  ;  (1 found)
0x00402ce3: add byte [eax], al ; mov eax, edx ; pop ebx ; pop esi ; ret  ;  (1 found)
0x00404e32: add byte [eax], al ; mov eax, esi ; pop ebx ; pop esi ; ret  ;  (1 found)
0x00404d67: add byte [eax], al ; mov eax, esi ; pop ebx ; pop esi ; ret  ;  (1 found)
0x00404d77: add byte [eax], al ; mov eax, esi ; pop ebx ; pop esi ; ret  ;  (1 found)
0x00404e4b: add byte [eax], al ; mov eax, esi ; pop ebx ; pop esi ; ret  ;  (1 found)
0x00404e6b: add byte [eax], al ; mov eax, esi ; pop ebx ; pop esi ; ret  ;  (1 found)
0x00401e62: add byte [eax], al ; mov ebx, dword [ebp-0x04] ; leave  ; ret  ;  (1 found)
0x00407373: add byte [eax], al ; movzx eax, al ; jmp dword [0x0040C9C0+eax*4] ;  (1 found)
0x00405207: add byte [eax], al ; movzx eax, al ; lea ebp, dword [edx+0x01] ; jmp dword [0x0040C8A4+eax*4] ;  (1 found)
0x004014aa: add byte [eax], al ; nop  ; leave  ; ret  ;  (1 found)
0x0040162e: add byte [eax], al ; nop  ; leave  ; ret  ;  (1 found)
0x00401736: add byte [eax], al ; nop  ; leave  ; ret  ;  (1 found)
0x0040242c: add byte [eax], al ; or dword [0x0040F024], eax ; pop ebx ; rep ret  ;  (1 found)
0x0040524b: add byte [eax], al ; pop ebx ; pop esi ; pop edi ; pop ebp ; ret  ;  (1 found)
0x00405288: add byte [eax], al ; pop ebx ; pop esi ; pop edi ; pop ebp ; ret  ;  (1 found)
0x004084e8: add byte [eax], al ; pop ebx ; pop esi ; pop edi ; pop ebp ; ret  ;  (1 found)
0x00408520: add byte [eax], al ; pop ebx ; pop esi ; pop edi ; pop ebp ; ret  ;  (1 found)
0x00408560: add byte [eax], al ; pop ebx ; pop esi ; pop edi ; pop ebp ; ret  ;  (1 found)
0x00408abc: add byte [eax], al ; pop ebx ; pop esi ; pop edi ; pop ebp ; ret  ;  (1 found)
0x004032a6: add byte [eax], al ; pop ebx ; pop esi ; pop edi ; ret  ;  (1 found)
0x00407d9d: add byte [eax], al ; pop ebx ; pop esi ; ret  ;  (1 found)
0x00407dba: add byte [eax], al ; pop ebx ; pop esi ; ret  ;  (1 found)
0x0040255c: add byte [eax], al ; pop ebx ; pop esi ; retn 0x000C ;  (1 found)
0x0040258e: add byte [eax], al ; pop ebx ; pop esi ; retn 0x000C ;  (1 found)
0x00405957: add byte [eax], al ; pop ebx ; ret  ;  (1 found)
0x00402625: add byte [eax], al ; sub esp, 0x04 ; add esp, 0x14 ; pop ebx ; pop esi ; ret  ;  (1 found)
0x00409eb2: add byte [eax], al ; sub esp, 0x04 ; add esp, 0x18 ; pop ebx ; ret  ;  (1 found)
0x0040a05a: add byte [eax], al ; sub esp, 0x04 ; add esp, 0x18 ; pop ebx ; ret  ;  (1 found)
0x0040271a: add byte [eax], al ; sub esp, 0x04 ; add esp, 0x18 ; xor eax, eax ; pop ebx ; ret  ;  (1 found)
0x00409f18: add byte [eax], al ; sub esp, 0x04 ; add esp, 0x1C ; ret  ;  (1 found)
0x00401457: add byte [eax], al ; sub esp, 0x04 ; leave  ; ret  ;  (1 found)
0x00401e5a: add byte [eax], al ; sub esp, 0x04 ; mov eax, 0x00000000 ; mov ebx, dword [ebp-0x04] ; leave  ; ret  ;  (1 found)
0x004012fe: add byte [eax], al ; sub esp, 0x1C ; mov dword [esp], 0x00000002 ; call dword [0x00443248] ;  (1 found)
0x004050b7: add byte [eax], al ; xor eax, eax ; add esp, 0x18 ; pop ebx ; ret  ;  (1 found)
0x0040104e: add byte [eax], al ; xor eax, eax ; add esp, 0x1C ; retn 0x0004 ;  (1 found)
0x004025be: add byte [eax], al ; xor eax, eax ; ret  ;  (1 found)
0x00402d5e: add byte [eax], al ; xor eax, eax ; ret  ;  (1 found)
0x004058c9: add byte [ebp+0x000000BF], cl ; add byte [ebx-0x77], dl ; ret  ;  (1 found)
0x00401048: add byte [ebp+0x000026B4], cl ; add byte [eax], al ; xor eax, eax ; add esp, 0x1C ; retn 0x0004 ;  (1 found)
0x00401328: add byte [ebp+0x000027BC], cl ; add byte [eax], al ; jmp dword [0x00443268] ;  (1 found)
0x00401317: add byte [ebp+0x000027BC], cl ; add byte [eax], al ; jmp dword [0x00443278] ;  (1 found)
0x00401318: add byte [ebp+0x000027BC], cl ; add byte [eax], al ; jmp dword [0x00443278] ;  (1 found)
0x004012f7: add byte [ebp+0x000027BC], cl ; add byte [eax], al ; sub esp, 0x1C ; mov dword [esp], 0x00000002 ; call dword [0x00443248] ;  (1 found)
0x004012f8: add byte [ebp+0x000027BC], cl ; add byte [eax], al ; sub esp, 0x1C ; mov dword [esp], 0x00000002 ; call dword [0x00443248] ;  (1 found)
0x004025b8: add byte [ebp+0x000027BC], cl ; add byte [eax], al ; xor eax, eax ; ret  ;  (1 found)
0x00402d58: add byte [ebp+0x000027BC], cl ; add byte [eax], al ; xor eax, eax ; ret  ;  (1 found)
0x00401569: add byte [ebp+0x15890150], cl ; pushad  ; cli  ; inc eax ; add cl, cl ; ret  ;  (1 found)
0x00406ee3: add byte [ebp+0x2D1774C0], al ; insb  ; leave  ; inc eax ; add byte [ecx+0x0107E283], bl ; retn 0xFAC1 ;  (1 found)
0x00404211: add byte [ebp+0x3FBEF465], cl ; add byte [eax], al ; add byte [ecx+0x5F5E5BF0], cl ; pop ebp ; ret  ;  (1 found)
0x004024c4: add byte [ebp-0x0CF88B40], al ; ret  ;  (1 found)
0x00402d4b: add byte [ebp-0x0E], dh ; xor eax, eax ; add esp, 0x14 ; pop ebx ; pop esi ; ret  ;  (1 found)
0x004041d6: add byte [ebp-0x0F760B9B], cl ; pop ebx ; pop esi ; pop edi ; pop ebp ; ret  ;  (1 found)
0x00403dbe: add byte [ebp-0x0F760B9B], cl ; pop ebx ; pop esi ; pop edi ; pop ebp ; ret  ;  (1 found)
0x0040a328: add byte [ebp-0x337BF001], al ; add byte [eax], al ; add dh, dh ; ret  ;  (1 found)
0x00401095: add byte [ebp-0x38498B40], al ; add al, 0x24 ; or byte [eax], al ; add byte [eax], al ; call eax ;  (1 found)
0x00401325: add byte [ebp-0x4372FF8A], cl ; daa  ; add byte [eax], al ; add byte [eax], al ; jmp dword [0x00443268] ;  (1 found)
0x00402777: add byte [ebp-0x479A8A40], al ; add dword [eax], eax ; add byte [eax], al ; add esp, 0x1C ; ret  ;  (1 found)
0x004049b6: add byte [ebp-0x76A40B9B], cl ; pop esi ; pop edi ; pop ebp ; ret  ;  (1 found)
0x00402603: add byte [ebp-0x7AF38A40], al ; div byte [eax+ecx-0x75] ; inc ebx ; add al, 0x89 ; xor al, 0x24 ; call eax ;  (1 found)
0x00402462: add byte [ebp-0x7C168A40], al ; les ecx,  [ebx+esi*8] ; ret  ;  (1 found)
0x00402446: add byte [ebp-0x7CE08B40], al ; in al, dx ; or al, 0x66 ; nop  ; call eax ;  (1 found)
0x0040263b: add byte [ebp-0x7CEF8A40], al ; les edx,  [ecx+ecx*4] ; pop ebx ; pop esi ; ret  ;  (1 found)
0x00401e5b: add byte [ebx+0x00B804EC], al ; add byte [eax], al ; add byte [ebx-0x3C3603A3], cl ; or eax, esp ; ret  ;  (1 found)
0x00407d96: add byte [ebx+0x02B834C4], al ; add byte [eax], al ; add byte [ebx+0x5E], bl ; ret  ;  (1 found)
0x004033ca: add byte [ebx+0x0489D445], cl ; and al, 0xE8 ; xor dh, byte [esi+0x00] ; add byte [ecx], al ; fdivr dword [ecx] ; ret  ;  (1 found)
0x004049b0: add byte [ebx+0x40F08435], cl ; add byte [ebp-0x76A40B9B], cl ; pop esi ; pop edi ; pop ebp ; ret  ;  (1 found)
0x00409aa1: add byte [ebx+0x5E5B10C4], al ; pop edi ; pop ebp ; ret  ;  (1 found)
0x004032e4: add byte [ebx+0x5E5B14C4], al ; ret  ;  (1 found)
0x004051da: add byte [ebx+0x5E5B14C4], al ; ret  ;  (1 found)
0x00409fbb: add byte [ebx+0x5E5B20C4], al ; pop edi ; ret  ;  (1 found)
0x00402c21: add byte [ebx+0x5E5B24C4], al ; ret  ;  (1 found)
0x00402c53: add byte [ebx+0x5E5B24C4], al ; ret  ;  (1 found)
0x00406400: add byte [ebx+0x5E5B40C4], al ; pop edi ; ret  ;  (1 found)
0x0040643b: add byte [ebx+0x5E5B40C4], al ; pop edi ; ret  ;  (1 found)
0x00406254: add byte [ebx+0x5E5B44C4], al ; ret  ;  (1 found)
0x00406229: add byte [ebx+0x5E5B44C4], al ; ret  ;  (1 found)
0x00406325: add byte [ebx+0x5E5B44C4], al ; ret  ;  (1 found)
0x004062f5: add byte [ebx+0x5E5B44C4], al ; ret  ;  (1 found)
0x0040289d: add byte [ebx+0x5E5B4CC4], al ; pop edi ; pop ebp ; ret  ;  (1 found)
0x0040524c: add byte [ebx+0x5E], bl ; pop edi ; pop ebp ; ret  ;  (1 found)
0x00405289: add byte [ebx+0x5E], bl ; pop edi ; pop ebp ; ret  ;  (1 found)
0x004084e9: add byte [ebx+0x5E], bl ; pop edi ; pop ebp ; ret  ;  (1 found)
0x00408521: add byte [ebx+0x5E], bl ; pop edi ; pop ebp ; ret  ;  (1 found)
0x00408abd: add byte [ebx+0x5E], bl ; pop edi ; pop ebp ; ret  ;  (1 found)
0x00408561: add byte [ebx+0x5E], bl ; pop edi ; pop ebp ; ret  ;  (1 found)
0x004032a7: add byte [ebx+0x5E], bl ; pop edi ; ret  ;  (1 found)
0x00407dbb: add byte [ebx+0x5E], bl ; ret  ;  (1 found)
0x00407d9e: add byte [ebx+0x5E], bl ; ret  ;  (1 found)
0x0040255d: add byte [ebx+0x5E], bl ; retn 0x000C ;  (1 found)
0x0040258f: add byte [ebx+0x5E], bl ; retn 0x000C ;  (1 found)
0x00402444: add byte [ebx+0x74C08500], cl ; pop ds ; sub esp, 0x0C ; nop  ; call eax ;  (1 found)
0x00409b1f: add byte [ebx+0x75C9850A], cl ; or al, 0x83 ; retn 0x8304 ;  (1 found)
0x00403e3d: add byte [ebx+0x7D8B1845], cl ; sbb al, 0x83 ; retn 0x8902 ;  (1 found)
0x00402433: add byte [ebx-0x0D], bl ; ret  ;  (1 found)
0x0040269f: add byte [ebx-0x0F76FB14], al ; add esp, 0x14 ; pop ebx ; pop esi ; ret  ;  (1 found)
0x00407ffd: add byte [ebx-0x1776B33C], al ; pop ebx ; pop esi ; pop edi ; pop ebp ; ret  ;  (1 found)
0x0040832e: add byte [ebx-0x1776C33C], al ; pop ebx ; pop esi ; pop edi ; pop ebp ; ret  ;  (1 found)
0x00402626: add byte [ebx-0x3B7CFB14], al ; adc al, 0x5B ; pop esi ; ret  ;  (1 found)
0x00401e63: add byte [ebx-0x3C3603A3], cl ; or eax, esp ; ret  ;  (1 found)
0x0040594b: add byte [ebx-0x3CA4E73C], al ; add esp, 0x18 ; mov eax, 0x00000004 ; pop ebx ; ret  ;  (1 found)
0x00401e6d: add byte [ebx-0x3CA5FA3F], al ; mov ebx, eax ; ret  ;  (1 found)
0x00403296: add byte [ebx-0x3FCEEF3C], al ; pop ebx ; pop esi ; pop edi ; ret  ;  (1 found)
0x004012da: add byte [ebx-0x6F3CC33C], al ; sub esp, 0x1C ; mov dword [esp], 0x00000001 ; call dword [0x00443248] ;  (1 found)
0x0040904b: add byte [ebx-0x76BFDBBC], cl ; retn 0x940B ;  (1 found)
0x004058fe: add byte [ebx-0x77], dl ; ret  ;  (1 found)
0x004058cf: add byte [ebx-0x77], dl ; ret  ;  (1 found)
0x004058ff: add byte [ebx-0x77], dl ; ret  ;  (1 found)
0x0040598f: add byte [ebx-0x77], dl ; ret  ;  (1 found)
0x00401851: add byte [ebx-0x78F0FB08], al ; sub al, byte [edx] ; add byte [eax], al ; mov eax, dword [0x0040C29C+eax*4] ; jmp eax ;  (1 found)
0x004026c8: add byte [ebx-0x7ADFDBA4], cl ; sal byte [ebp+0x0F], 0xFFFFFF83 ; les ebx,  [eax] ; xor eax, eax ; pop ebx ; ret  ;  (1 found)
0x0040a7a5: add byte [ebx-0x7CDBDBBC], cl ; les edi,  [ebx+ebx*2] ; pop esi ; pop edi ; pop ebp ; ret  ;  (1 found)
0x0040ad5e: add byte [ebx-0x7CFBDBBC], cl ; les ebx,  [ebx+ebx*2] ; pop esi ; pop edi ; pop ebp ; ret  ;  (1 found)
0x00401f6a: add byte [ebx], dh ; inc esp ; add byte [eax-0x03DA0070], dl ; xor al, byte [eax+eax-0x70] ; nop  ; jmp dword [0x004432F8] ;  (1 found)
0x004084e3: add byte [ecx+0x00008CC4], al ; add byte [ebx+0x5E], bl ; pop edi ; pop ebp ; ret  ;  (1 found)
0x0040851b: add byte [ecx+0x00008CC4], al ; add byte [ebx+0x5E], bl ; pop edi ; pop ebp ; ret  ;  (1 found)
0x0040855b: add byte [ecx+0x00008CC4], al ; add byte [ebx+0x5E], bl ; pop edi ; pop ebp ; ret  ;  (1 found)
0x00401564: add byte [ecx+0x0040FA60], ah ; lea edx, dword [eax+0x01] ; mov dword [0x0040FA60], edx ; leave  ; ret  ;  (1 found)
0x00406eec: add byte [ecx+0x0107E283], bl ; retn 0xFAC1 ;  (1 found)
0x004072b0: add byte [ecx+0x0107E283], bl ; retn 0xFAC1 ;  (1 found)
0x00409eab: add byte [ecx+0x14E82404], cl ; or eax, 0xEC830000 ; add al, 0x83 ; les ebx,  [eax] ; pop ebx ; ret  ;  (1 found)
0x00409b67: add byte [ecx+0x18C48318], cl ; add eax, 0x04 ; pop ebx ; ret  ;  (1 found)
0x004081f4: add byte [ecx+0x1BE82404], cl ; sub byte [eax], al ; add byte [ecx-0x7A3FCE3E], cl ; sal byte [ebx+ecx-0x7D], cl ; retn 0x8901 ;  (1 found)
0x004015bd: add byte [ecx+0x42E82404], cl ; xchg eax, esp ; add byte [eax], al ; leave  ; ret  ;  (1 found)
0x004080bd: add byte [ecx+0x52E82404], cl ; sub dword [eax], eax ; add byte [ecx-0x7A3FCE3E], cl ; sal byte [ebx+ecx-0x7D], cl ; retn 0x8901 ;  (1 found)
0x00407eb6: add byte [ecx+0x59E82404], cl ; sub eax, dword [eax] ; add byte [ecx-0x7A3FCE3E], cl ; sal byte [ebx+ecx-0x7D], cl ; retn 0x8901 ;  (1 found)
0x00404219: add byte [ecx+0x5F5E5BF0], cl ; pop ebp ; ret  ;  (1 found)
0x00404fd6: add byte [ecx+0x5F5E5BF0], cl ; pop ebp ; ret  ;  (1 found)
0x004068f8: add byte [ecx-0x000E9E18], bl ; inc dword [ebx+0x5E5B5CC4] ; pop edi ; pop ebp ; ret  ;  (1 found)
0x0040a029: add byte [ecx-0x063F7AE4], cl ; inc eax ; add byte [ecx-0x7CE48BED], cl ; les ebx,  [eax] ; pop ebx ; ret  ;  (1 found)
0x00402c0e: add byte [ecx-0x17F7DBA4], cl ; push 0x39000041 ; fmul dword [ecx-0x39ED883E] ; add al, 0x16 ; add byte [ebx+0x5E5B24C4], al ; ret  ;  (1 found)
0x0040590f: add byte [ecx-0x17FBDBBC], cl ; call dword [eax+0x00] ;  (1 found)
0x00402ce4: add byte [ecx-0x3CA1A430], cl ; xor edx, edx ; mov eax, edx ; ret  ;  (1 found)
0x00407ebe: add byte [ecx-0x7A3FCE3E], cl ; sal byte [ebx+ecx-0x7D], cl ; retn 0x8901 ;  (1 found)
0x004080c5: add byte [ecx-0x7A3FCE3E], cl ; sal byte [ebx+ecx-0x7D], cl ; retn 0x8901 ;  (1 found)
0x004081fc: add byte [ecx-0x7A3FCE3E], cl ; sal byte [ebx+ecx-0x7D], cl ; retn 0x8901 ;  (1 found)
0x0040ad8f: add byte [ecx-0x7C0D7638], cl ; les ebx,  [ebx+ebx*2] ; pop esi ; pop edi ; pop ebp ; ret  ;  (1 found)
0x004030d1: add byte [ecx-0x7C27D630], cl ; les ebp,  [ebx+ebx*2] ; pop esi ; pop edi ; pop ebp ; ret  ;  (1 found)
0x0040a030: add byte [ecx-0x7CE48BED], cl ; les ebx,  [eax] ; pop ebx ; ret  ;  (1 found)
0x004027c1: add byte [ecx], al ; add byte [eax], al ; add byte [eax+0x00000001], bh ; add esp, 0x1C ; ret  ;  (1 found)
0x004033d5: add byte [ecx], al ; fdivr dword [ecx] ; ret  ;  (1 found)
0x004082bf: add byte [ecx], al ; ret  ;  (1 found)
0x00402c17: add byte [ecx], bh ; fmul dword [ecx-0x39ED883E] ; add al, 0x16 ; add byte [ebx+0x5E5B24C4], al ; ret  ;  (1 found)
0x00408e4c: add byte [ecx], ch ; retn 0x5489 ;  (1 found)
0x00408df4: add byte [ecx], ch ; retn 0xE1E9 ;  (1 found)
0x0040242d: add byte [ecx], cl ; add eax, 0x0040F024 ; pop ebx ; rep ret  ;  (1 found)
0x00409b9b: add byte [ecx], dh ; jmp dword [esi-0x70] ;  (1 found)
0x0040521f: add byte [ecx], dh ; ror byte [ecx+0x04C4832B], 0x0000005B ; pop esi ; pop edi ; pop ebp ; ret  ;  (1 found)
0x00408137: add byte [edi+0x6D], dh ; mov ecx, dword [esp+0x50] ; mov byte [ecx], al ; mov eax, 0x00000001 ; add esp, 0x4C ; ret  ;  (1 found)
0x00402b2f: add byte [edi-0x15], dh ; sub ecx, eax ; or dword [ecx], 0x00000000 ; pop eax ; pop ecx ; ret  ;  (1 found)
0x004051c1: add byte [edi-0x24], bh ; add esp, 0x14 ; pop ebx ; pop esi ; ret  ;  (1 found)
0x00407374: add byte [edi], cl ; mov dh, 0xC0 ; jmp dword [0x0040C9C0+eax*4] ;  (1 found)
0x00405208: add byte [edi], cl ; mov dh, 0xC0 ; lea ebp, dword [edx+0x01] ; jmp dword [0x0040C8A4+eax*4] ;  (1 found)
0x0040670d: add byte [edi], cl ; movsb  ; retn 0x0101 ;  (1 found)
0x00402cdf: add byte [edx+0x00000001], bh ; mov eax, edx ; pop ebx ; pop esi ; ret  ;  (1 found)
0x00402a4d: add byte [edx-0x2E], dh ; add esp, 0x20 ; pop ebx ; pop esi ; pop edi ; ret  ;  (1 found)
0x00405008: add byte [edx], al ; add byte [eax], al ; add bl, ch ; retn 0xCCE8 ;  (1 found)
0x0040242a: add byte [edx], al ; add byte [eax], al ; or dword [0x0040F024], eax ; pop ebx ; rep ret  ;  (1 found)
0x004081ad: add byte [edx], ch ; add byte [eax], al ; add byte [eax-0x00000001], bh ; add esp, 0x4C ; ret  ;  (1 found)
0x0040ab5a: add byte [edx], dh ; inc esp ; add byte [eax-0x03DA0070], dl ; xor dword [eax+eax-0x70], eax ; nop  ; jmp dword [0x004431F8] ;  (1 found)
0x00403c8f: add byte [esi+ecx-0x7D], dh ; les edx,  [eax] ; pop ebx ; pop esi ; pop edi ; ret  ;  (1 found)
0x004051d6: add byte [esi], dl ; add byte [eax], al ; add byte [ebx+0x5E5B14C4], al ; ret  ;  (1 found)
0x0040506f: add cl, byte [ecx+0x08C483D8] ; pop ebx ; ret  ;  (1 found)
0x004058f4: add cl, byte [ecx+0x10C4830B] ; pop ebx ; ret  ;  (1 found)
0x00409be3: add cl, byte [ecx+0x10C48313] ; mov eax, edi ; pop ebx ; pop esi ; pop edi ; ret  ;  (1 found)
0x004066e6: add cl, byte [edi] ; movsd  ; retn 0xE0D3 ;  (1 found)
0x00404b28: add cl, ch ; retn 0x0000 ;  (1 found)
0x004015c5: add cl, cl ; ret  ;  (1 found)
0x00401572: add cl, cl ; ret  ;  (1 found)
0x00401f2a: add cl, cl ; ret  ;  (1 found)
0x0040237b: add dh, bh ; retn 0x0000 ;  (1 found)
0x00409e4b: add dh, byte [esp+edx*2-0x7D] ; les ebx,  [eax] ; pop ebx ; ret  ;  (1 found)
0x0040a330: add dh, dh ; ret  ;  (1 found)
0x0040813f: add dword [eax+0x00000001], edi ; add esp, 0x4C ; ret  ;  (1 found)
0x00402edf: add dword [eax+eax*8-0x3B7C118B], eax ; cmp al, 0x31 ; rcr byte [ebx+0x5E], 0x0000005F ; pop ebp ; ret  ;  (1 found)
0x0040289b: add dword [eax], 0x4CC48300 ; pop ebx ; pop esi ; pop edi ; pop ebp ; ret  ;  (1 found)
0x0040241e: add dword [eax], eax ; add bh, dh ; retn 0x0000 ;  (1 found)
0x004027c7: add dword [eax], eax ; add byte [eax], al ; add esp, 0x1C ; ret  ;  (1 found)
0x0040277d: add dword [eax], eax ; add byte [eax], al ; add esp, 0x1C ; ret  ;  (1 found)
0x00402519: add dword [eax], eax ; add byte [eax], al ; add esp, 0x1C ; retn 0x000C ;  (1 found)
0x004024f1: add dword [eax], eax ; add byte [eax], al ; add esp, 0x1C ; retn 0x000C ;  (1 found)
0x00408141: add dword [eax], eax ; add byte [eax], al ; add esp, 0x4C ; ret  ;  (1 found)
0x004012e6: add dword [eax], eax ; add byte [eax], al ; call dword [0x00443248] ;  (1 found)
0x0040a17a: add dword [eax], eax ; add byte [eax], al ; mov dword [eax+0x14], edx ; add esp, 0x1C ; ret  ;  (1 found)
0x004027c2: add dword [eax], eax ; add byte [eax], al ; mov eax, 0x00000001 ; add esp, 0x1C ; ret  ;  (1 found)
0x00402ce1: add dword [eax], eax ; add byte [eax], al ; mov eax, edx ; pop ebx ; pop esi ; ret  ;  (1 found)
0x004032a4: add dword [eax], eax ; add byte [eax], al ; pop ebx ; pop esi ; pop edi ; ret  ;  (1 found)
0x00407db8: add dword [eax], eax ; add byte [eax], al ; pop ebx ; pop esi ; ret  ;  (1 found)
0x0040255a: add dword [eax], eax ; add byte [eax], al ; pop ebx ; pop esi ; retn 0x000C ;  (1 found)
0x0040258c: add dword [eax], eax ; add byte [eax], al ; pop ebx ; pop esi ; retn 0x000C ;  (1 found)
0x00401e59: add dword [eax], eax ; add byte [ebx+0x00B804EC], al ; add byte [eax], al ; add byte [ebx-0x3C3603A3], cl ; or eax, esp ; ret  ;  (1 found)
0x00404fd4: add dword [eax], eax ; add byte [ecx+0x5F5E5BF0], cl ; pop ebp ; ret  ;  (1 found)
0x004068f6: add dword [eax], eax ; add byte [ecx-0x000E9E18], bl ; inc dword [ebx+0x5E5B5CC4] ; pop edi ; pop ebp ; ret  ;  (1 found)
0x004051bf: add dword [eax], eax ; add byte [edi-0x24], bh ; add esp, 0x14 ; pop ebx ; pop esi ; ret  ;  (1 found)
0x00405974: add dword [ebp+0x0A], esi ; mov eax, 0x00000008 ; add esp, 0x18 ; pop ebx ; ret  ;  (1 found)
0x004016ca: add dword [ebx+0x0040FA60], esp ; nop  ; leave  ; ret  ;  (1 found)
0x00402f3f: add dword [ebx+0x5E], ebx ; pop edi ; pop ebp ; ret  ;  (1 found)
0x00402f8a: add dword [ebx+0x5E], ebx ; pop edi ; pop ebp ; ret  ;  (1 found)
0x0040a5d4: add dword [ebx+0x5E], ebx ; ret  ;  (1 found)
0x00405940: add dword [ebx], eax ; sete al ; lea eax, dword [0x00000004+eax*4] ; add esp, 0x18 ; pop ebx ; ret  ;  (1 found)
0x0040156c: add dword [ecx+0x40FA6015], ecx ; add cl, cl ; ret  ;  (1 found)
0x0040a9cd: add dword [ecx+ecx*8-0x0F8AF778], eax ; rep ret  ;  (1 found)
0x004058eb: add dword [ecx-0x7FF3DBB4], ecx ; cmp ah, byte [0x830B8902+esi*2] ; les edx,  [eax] ; pop ebx ; ret  ;  (1 found)
0x00405e2e: add dword [ecx], 0x578B0000 ; or al, 0x39 ; retn 0x8D0F ;  (1 found)
0x004035bb: add dword [ecx], esp ; ret  ;  (1 found)
0x00409e46: add dword [edi-0x7D], esi ; clc  ; add dh, byte [esp+edx*2-0x7D] ; les ebx,  [eax] ; pop ebx ; ret  ;  (1 found)
0x0040241b: add eax, 0x000100B8 ; add bh, dh ; retn 0x0000 ;  (1 found)
0x00402428: add eax, 0x0002000D ; add byte [ecx], cl ; add eax, 0x0040F024 ; pop ebx ; rep ret  ;  (1 found)
0x0040242f: add eax, 0x0040F024 ; pop ebx ; rep ret  ;  (1 found)
0x004027bd: add eax, 0x0040F040 ; add dword [eax], eax ; add byte [eax], al ; mov eax, 0x00000001 ; add esp, 0x1C ; ret  ;  (1 found)
0x0040596f: add eax, 0x0040F089 ; add dword [ebp+0x0A], esi ; mov eax, 0x00000008 ; add esp, 0x18 ; pop ebx ; ret  ;  (1 found)
0x00409b6d: add eax, 0x04 ; pop ebx ; ret  ;  (1 found)
0x004059af: add eax, 0x5B28C483 ; ret  ;  (1 found)
0x00402cb9: add eax, 0x745DFA83 ; and dword [ebx-0x6AF0DE06], eax ; retn 0xB60F ;  (1 found)
0x00401e70: add eax, 0xC389C35A ; ret  ;  (1 found)
0x0040184f: add eax, dword [eax] ; add byte [ebx-0x78F0FB08], al ; sub al, byte [edx] ; add byte [eax], al ; mov eax, dword [0x0040C29C+eax*4] ; jmp eax ;  (1 found)
0x00409b65: add eax, dword [eax] ; add byte [ecx+0x18C48318], cl ; add eax, 0x04 ; pop ebx ; ret  ;  (1 found)
0x00402919: add eax, dword [edx-0x137D0000] ; adc byte [ebx+0x5E5B4CC4], al ; pop edi ; pop ebp ; ret  ;  (1 found)
0x00401e7b: add eax, ebx ; xchg edx, ebx ; cmp ebx, eax ; ret  ;  (1 found)
0x00409b36: add eax, ecx ; pop ebx ; ret  ;  (1 found)
0x0040576d: add ebp, dword [ecx] ; retn 0xDBE8 ;  (1 found)
0x00401e82: add ebx, 0x04 ; ret  ;  (1 found)
0x004054f4: add ecx, 0x01 ; mov dword [edx+0x18], ecx ; add esp, 0x28 ; pop ebx ; ret  ;  (1 found)
0x00405519: add ecx, 0x01 ; mov dword [edx+0x18], ecx ; add esp, 0x28 ; pop ebx ; ret  ;  (1 found)
0x00401e6e: add ecx, 0x05 ; pop edx ; ret  ;  (1 found)
0x00401e86: add edx, ecx ; ret  ;  (1 found)
0x004084e4: add esp, 0x0000008C ; pop ebx ; pop esi ; pop edi ; pop ebp ; ret  ;  (1 found)
0x0040851c: add esp, 0x0000008C ; pop ebx ; pop esi ; pop edi ; pop ebp ; ret  ;  (1 found)
0x00408ab8: add esp, 0x0000008C ; pop ebx ; pop esi ; pop edi ; pop ebp ; ret  ;  (1 found)
0x0040855c: add esp, 0x0000008C ; pop ebx ; pop esi ; pop edi ; pop ebp ; ret  ;  (1 found)
0x00404d73: add esp, 0x00000154 ; mov eax, esi ; pop ebx ; pop esi ; ret  ;  (1 found)
0x00404d63: add esp, 0x00000154 ; mov eax, esi ; pop ebx ; pop esi ; ret  ;  (1 found)
0x00404e2e: add esp, 0x00000154 ; mov eax, esi ; pop ebx ; pop esi ; ret  ;  (1 found)
0x00404e67: add esp, 0x00000154 ; mov eax, esi ; pop ebx ; pop esi ; ret  ;  (1 found)
0x00404e47: add esp, 0x00000154 ; mov eax, esi ; pop ebx ; pop esi ; ret  ;  (1 found)
0x004052b8: add esp, 0x04 ; pop ebx ; pop esi ; pop edi ; pop ebp ; ret  ;  (1 found)
0x00405224: add esp, 0x04 ; pop ebx ; pop esi ; pop edi ; pop ebp ; ret  ;  (1 found)
0x00405072: add esp, 0x08 ; pop ebx ; ret  ;  (1 found)
0x004056d9: add esp, 0x0C ; pop ebx ; pop esi ; pop edi ; pop ebp ; ret  ;  (1 found)
0x00402467: add esp, 0x0C ; rep ret  ;  (1 found)
0x00405151: add esp, 0x0C ; ret  ;  (1 found)
0x004032a0: add esp, 0x10 ; mov eax, 0x00000001 ; pop ebx ; pop esi ; pop edi ; ret  ;  (1 found)
0x00409be6: add esp, 0x10 ; mov eax, edi ; pop ebx ; pop esi ; pop edi ; ret  ;  (1 found)
0x00409aa2: add esp, 0x10 ; pop ebx ; pop esi ; pop edi ; pop ebp ; ret  ;  (1 found)
0x00409adc: add esp, 0x10 ; pop ebx ; pop esi ; pop edi ; pop ebp ; ret  ;  (1 found)
0x00403c92: add esp, 0x10 ; pop ebx ; pop esi ; pop edi ; ret  ;  (1 found)
0x004058f7: add esp, 0x10 ; pop ebx ; ret  ;  (1 found)
0x00403297: add esp, 0x10 ; xor eax, eax ; pop ebx ; pop esi ; pop edi ; ret  ;  (1 found)
0x00402556: add esp, 0x14 ; mov eax, 0x00000001 ; pop ebx ; pop esi ; retn 0x000C ;  (1 found)
0x00402588: add esp, 0x14 ; mov eax, 0x00000001 ; pop ebx ; pop esi ; retn 0x000C ;  (1 found)
0x00402640: add esp, 0x14 ; mov eax, esi ; pop ebx ; pop esi ; ret  ;  (1 found)
0x0040a826: add esp, 0x14 ; pop ebx ; pop esi ; pop edi ; pop ebp ; ret  ;  (1 found)
0x0040a89b: add esp, 0x14 ; pop ebx ; pop esi ; pop edi ; pop ebp ; ret  ;  (1 found)
0x0040262a: add esp, 0x14 ; pop ebx ; pop esi ; ret  ;  (1 found)
0x004026a5: add esp, 0x14 ; pop ebx ; pop esi ; ret  ;  (1 found)
0x004026a4: add esp, 0x14 ; pop ebx ; pop esi ; ret  ;  (1 found)
0x004032e5: add esp, 0x14 ; pop ebx ; pop esi ; ret  ;  (1 found)
0x00402d50: add esp, 0x14 ; pop ebx ; pop esi ; ret  ;  (1 found)
0x004051c4: add esp, 0x14 ; pop ebx ; pop esi ; ret  ;  (1 found)
0x004051db: add esp, 0x14 ; pop ebx ; pop esi ; ret  ;  (1 found)
0x00409b6a: add esp, 0x18 ; add eax, 0x04 ; pop ebx ; ret  ;  (1 found)
0x00405951: add esp, 0x18 ; mov eax, 0x00000004 ; pop ebx ; ret  ;  (1 found)
0x0040249b: add esp, 0x18 ; pop ebx ; ret  ;  (1 found)
0x004050bb: add esp, 0x18 ; pop ebx ; ret  ;  (1 found)
0x0040510c: add esp, 0x18 ; pop ebx ; ret  ;  (1 found)
0x00405133: add esp, 0x18 ; pop ebx ; ret  ;  (1 found)
0x0040594c: add esp, 0x18 ; pop ebx ; ret  ;  (1 found)
0x0040597c: add esp, 0x18 ; pop ebx ; ret  ;  (1 found)
0x00409e4e: add esp, 0x18 ; pop ebx ; ret  ;  (1 found)
0x00409eb7: add esp, 0x18 ; pop ebx ; ret  ;  (1 found)
0x0040a035: add esp, 0x18 ; pop ebx ; ret  ;  (1 found)
0x0040a05f: add esp, 0x18 ; pop ebx ; ret  ;  (1 found)
0x004026d1: add esp, 0x18 ; xor eax, eax ; pop ebx ; ret  ;  (1 found)
0x0040271f: add esp, 0x18 ; xor eax, eax ; pop ebx ; ret  ;  (1 found)
0x00405775: add esp, 0x1C ; pop ebx ; pop esi ; pop edi ; pop ebp ; ret  ;  (1 found)
0x0040ae25: add esp, 0x1C ; pop ebx ; pop esi ; pop edi ; pop ebp ; ret  ;  (1 found)
0x00405fab: add esp, 0x1C ; pop ebx ; pop esi ; pop edi ; pop ebp ; ret  ;  (1 found)
0x0040ae24: add esp, 0x1C ; pop ebx ; pop esi ; pop edi ; pop ebp ; ret  ;  (1 found)
0x0040a99d: add esp, 0x1C ; pop ebx ; pop esi ; pop edi ; pop ebp ; ret  ;  (1 found)
0x0040a954: add esp, 0x1C ; pop ebx ; pop esi ; pop edi ; pop ebp ; ret  ;  (1 found)
0x0040ac30: add esp, 0x1C ; pop ebx ; pop esi ; pop edi ; pop ebp ; ret  ;  (1 found)
0x0040acce: add esp, 0x1C ; pop ebx ; pop esi ; pop edi ; pop ebp ; ret  ;  (1 found)
0x0040acba: add esp, 0x1C ; pop ebx ; pop esi ; pop edi ; pop ebp ; ret  ;  (1 found)
0x0040acaa: add esp, 0x1C ; pop ebx ; pop esi ; pop edi ; pop ebp ; ret  ;  (1 found)
0x0040ad38: add esp, 0x1C ; pop ebx ; pop esi ; pop edi ; pop ebp ; ret  ;  (1 found)
0x0040ad93: add esp, 0x1C ; pop ebx ; pop esi ; pop edi ; pop ebp ; ret  ;  (1 found)
0x0040ad63: add esp, 0x1C ; pop ebx ; pop esi ; pop edi ; pop ebp ; ret  ;  (1 found)
0x0040ad94: add esp, 0x1C ; pop ebx ; pop esi ; pop edi ; pop ebp ; ret  ;  (1 found)
0x00402781: add esp, 0x1C ; ret  ;  (1 found)
0x004027cb: add esp, 0x1C ; ret  ;  (1 found)
0x00402b81: add esp, 0x1C ; ret  ;  (1 found)
0x00402bd7: add esp, 0x1C ; ret  ;  (1 found)
0x00404877: add esp, 0x1C ; ret  ;  (1 found)
0x0040a181: add esp, 0x1C ; ret  ;  (1 found)
0x00409f1d: add esp, 0x1C ; ret  ;  (1 found)
0x00401052: add esp, 0x1C ; retn 0x0004 ;  (1 found)
0x004024f5: add esp, 0x1C ; retn 0x000C ;  (1 found)
0x0040251d: add esp, 0x1C ; retn 0x000C ;  (1 found)
0x00402a50: add esp, 0x20 ; pop ebx ; pop esi ; pop edi ; ret  ;  (1 found)
0x00408227: add esp, 0x20 ; pop ebx ; pop esi ; pop edi ; ret  ;  (1 found)
0x00409fbc: add esp, 0x20 ; pop ebx ; pop esi ; pop edi ; ret  ;  (1 found)
0x00405303: add esp, 0x24 ; mov eax, ebx ; pop ebx ; pop esi ; ret  ;  (1 found)
0x00402c22: add esp, 0x24 ; pop ebx ; pop esi ; ret  ;  (1 found)
0x00402c54: add esp, 0x24 ; pop ebx ; pop esi ; ret  ;  (1 found)
0x004059b0: add esp, 0x28 ; pop ebx ; ret  ;  (1 found)
0x004059c1: add esp, 0x28 ; pop ebx ; ret  ;  (1 found)
0x004054fa: add esp, 0x28 ; pop ebx ; ret  ;  (1 found)
0x0040551f: add esp, 0x28 ; pop ebx ; ret  ;  (1 found)
0x00403128: add esp, 0x2C ; pop ebx ; pop esi ; pop edi ; pop ebp ; ret  ;  (1 found)
0x004030d6: add esp, 0x2C ; pop ebx ; pop esi ; pop edi ; pop ebp ; ret  ;  (1 found)
0x0040619a: add esp, 0x2C ; pop ebx ; pop esi ; pop edi ; pop ebp ; ret  ;  (1 found)
0x004048b7: add esp, 0x2C ; ret  ;  (1 found)
0x004048f7: add esp, 0x2C ; ret  ;  (1 found)
0x00407db4: add esp, 0x34 ; mov eax, 0x00000001 ; pop ebx ; pop esi ; ret  ;  (1 found)
0x00407d97: add esp, 0x34 ; mov eax, 0x00000002 ; pop ebx ; pop esi ; ret  ;  (1 found)
0x00407dcb: add esp, 0x34 ; pop ebx ; pop esi ; ret  ;  (1 found)
0x00407efe: add esp, 0x34 ; pop ebx ; pop esi ; ret  ;  (1 found)
0x00407e40: add esp, 0x34 ; xor eax, eax ; pop ebx ; pop esi ; ret  ;  (1 found)
0x00408109: add esp, 0x38 ; pop ebx ; ret  ;  (1 found)
0x0040a55a: add esp, 0x3C ; pop ebx ; pop esi ; pop edi ; pop ebp ; ret  ;  (1 found)
0x0040a74e: add esp, 0x3C ; pop ebx ; pop esi ; pop edi ; pop ebp ; ret  ;  (1 found)
0x0040a7aa: add esp, 0x3C ; pop ebx ; pop esi ; pop edi ; pop ebp ; ret  ;  (1 found)
0x004012db: add esp, 0x3C ; ret  ;  (1 found)
0x00406401: add esp, 0x40 ; pop ebx ; pop esi ; pop edi ; ret  ;  (1 found)
0x0040643c: add esp, 0x40 ; pop ebx ; pop esi ; pop edi ; ret  ;  (1 found)
0x00406255: add esp, 0x44 ; pop ebx ; pop esi ; ret  ;  (1 found)
0x0040622a: add esp, 0x44 ; pop ebx ; pop esi ; ret  ;  (1 found)
0x004062f6: add esp, 0x44 ; pop ebx ; pop esi ; ret  ;  (1 found)
0x00406326: add esp, 0x44 ; pop ebx ; pop esi ; ret  ;  (1 found)
0x00405455: add esp, 0x48 ; pop ebx ; ret  ;  (1 found)
0x0040289e: add esp, 0x4C ; pop ebx ; pop esi ; pop edi ; pop ebp ; ret  ;  (1 found)
0x00402920: add esp, 0x4C ; pop ebx ; pop esi ; pop edi ; pop ebp ; ret  ;  (1 found)
0x004055f9: add esp, 0x4C ; pop ebx ; pop esi ; pop edi ; pop ebp ; ret  ;  (1 found)
0x0040a2f0: add esp, 0x4C ; pop ebx ; pop esi ; pop edi ; pop ebp ; ret  ;  (1 found)
0x00409e03: add esp, 0x4C ; pop ebx ; pop esi ; pop edi ; pop ebp ; ret  ;  (1 found)
0x00408145: add esp, 0x4C ; ret  ;  (1 found)
0x004081b7: add esp, 0x4C ; ret  ;  (1 found)
0x004068ff: add esp, 0x5C ; pop ebx ; pop esi ; pop edi ; pop ebp ; ret  ;  (1 found)
0x00401361: and al, 0x00 ; rol byte [eax+0x00], 0xFFFFFF89 ; ret  ;  (1 found)
0x004011ca: and al, 0x04 ; add al, byte [eax] ; add byte [eax], al ; mov dword [esp], 0x00000000 ; call eax ;  (1 found)
0x00403a5a: and al, 0x04 ; mov esi, dword [ebp-0x44] ; mov eax, dword [esi] ; mov dword [esp], eax ; call edi ;  (1 found)
0x00401ebe: and al, 0x04 ; retn 0x40C6 ;  (1 found)
0x004011c2: and al, 0x08 ; add byte [eax], al ; add byte [eax], al ; mov dword [esp+0x04], 0x00000002 ; mov dword [esp], 0x00000000 ; call eax ;  (1 found)
0x00402b7d: and al, 0x0C ; xor eax, eax ; add esp, 0x1C ; ret  ;  (1 found)
0x00401bd8: and al, 0x10 ; ret  ;  (1 found)
0x00402b01: and al, 0x1C ; mov dword [eax+0x00], 0xFFFCF5E8 ; call dword [eax-0x6F6F6F70] ;  (1 found)
0x0040a175: and al, 0x20 ; mov dword [eax+0x10], 0x00000001 ; mov dword [eax+0x14], edx ; add esp, 0x1C ; ret  ;  (1 found)
0x00401584: and al, 0x20 ; rol dword [eax+0x00], 0xFFFFFFE8 ; retn 0x0094 ;  (1 found)
0x004072ab: and al, 0x2D ; insb  ; leave  ; inc eax ; add byte [ecx+0x0107E283], bl ; retn 0xFAC1 ;  (1 found)
0x00401b0a: and al, 0x30 ; retn 0x0040 ;  (1 found)
0x0040ab12: and al, 0x32 ; inc esp ; add byte [eax+0x2025FF90], dl ; xor al, byte [eax+eax-0x70] ; nop  ; jmp dword [0x0044321C] ;  (1 found)
0x0040813c: and al, 0x50 ; mov byte [ecx], al ; mov eax, 0x00000001 ; add esp, 0x4C ; ret  ;  (1 found)
0x00401be4: and al, 0x50 ; ret  ;  (1 found)
0x00402c56: and al, 0x5B ; pop esi ; ret  ;  (1 found)
0x00402c24: and al, 0x5B ; pop esi ; ret  ;  (1 found)
0x00401b38: and al, 0x5C ; retn 0x0040 ;  (1 found)
0x0040590b: and al, 0x6C ; leave  ; inc eax ; add byte [ecx-0x17FBDBBC], cl ; call dword [eax+0x00] ;  (1 found)
0x004058f2: and al, 0x75 ; add cl, byte [ecx+0x10C4830B] ; pop ebx ; ret  ;  (1 found)
0x00401b5b: and al, 0x80 ; retn 0x0040 ;  (1 found)
0x0040a74d: and al, 0x83 ; les edi,  [ebx+ebx*2] ; pop esi ; pop edi ; pop ebp ; ret  ;  (1 found)
0x0040a7a9: and al, 0x83 ; les edi,  [ebx+ebx*2] ; pop esi ; pop edi ; pop ebp ; ret  ;  (1 found)
0x0040a825: and al, 0x83 ; les edx,  [ebx+ebx*2] ; pop esi ; pop edi ; pop ebp ; ret  ;  (1 found)
0x0040a89a: and al, 0x83 ; les edx,  [ebx+ebx*2] ; pop esi ; pop edi ; pop ebp ; ret  ;  (1 found)
0x00409258: and al, 0x83 ; ret  ;  (1 found)
0x00405305: and al, 0x89 ; fcomp dword [ebx+0x5E] ; ret  ;  (1 found)
0x0040172e: and al, 0x92 ; rol dword [eax+0x00], 0xFFFFFFE8 ; sbb byte [ebx-0x36700000], dl ; ret  ;  (1 found)
0x00401bcc: and al, 0xB0 ; retn 0x0040 ;  (1 found)
0x00401441: and al, 0xB8 ; rol byte [eax+0x00], 1  ; call eax ;  (1 found)
0x004013b0: and al, 0xB8 ; rol byte [eax+0x00], 1  ; call esi ;  (1 found)
0x00401bf0: and al, 0xC0 ; ret  ;  (1 found)
0x00402917: and al, 0xE8 ; add eax, dword [edx-0x137D0000] ; adc byte [ebx+0x5E5B4CC4], al ; pop edi ; pop ebp ; ret  ;  (1 found)
0x004059f9: and al, 0xE8 ; and dword [eax+eax], 0x89C08500 ; retn 0x0E7E ;  (1 found)
0x00402512: and al, 0xE8 ; dec eax ; add al, byte [eax] ; add byte [eax+0x00000001], bh ; add esp, 0x1C ; retn 0x000C ;  (1 found)
0x004015c0: and al, 0xE8 ; inc edx ; xchg eax, esp ; add byte [eax], al ; leave  ; ret  ;  (1 found)
0x00402936: and al, 0xE8 ; mov byte [eax+0x00], 0xFFFFFFE8 ; sar dh, 0xFFFFFFFF ; jmp dword [ecx+0x0040F05C] ;  (1 found)
0x00402bd1: and al, 0xE8 ; or dword [eax], eax ; add byte [eax], al ; add esp, 0x1C ; ret  ;  (1 found)
0x00407eb9: and al, 0xE8 ; pop ecx ; sub eax, dword [eax] ; add byte [ecx-0x7A3FCE3E], cl ; sal byte [ebx+ecx-0x7D], cl ; retn 0x8901 ;  (1 found)
0x004080c0: and al, 0xE8 ; push edx ; sub dword [eax], eax ; add byte [ecx-0x7A3FCE3E], cl ; sal byte [ebx+ecx-0x7D], cl ; retn 0x8901 ;  (1 found)
0x00402898: and al, 0xE8 ; retn 0x0081 ;  (1 found)
0x00401ee7: and al, 0xE8 ; retn 0xFFF5 ;  (1 found)
0x00406224: and al, 0xE8 ; salc  ; cmp dword [eax], eax ; add byte [ebx+0x5E5B44C4], al ; ret  ;  (1 found)
0x0040624f: and al, 0xE8 ; stosd  ; cmp dword [eax], eax ; add byte [ebx+0x5E5B44C4], al ; ret  ;  (1 found)
0x00404925: and al, 0xE8 ; sub eax, 0x89000065 ; ret  ;  (1 found)
0x004033d0: and al, 0xE8 ; xor dh, byte [esi+0x00] ; add byte [ecx], al ; fdivr dword [ecx] ; ret  ;  (1 found)
0x00402f13: and al, 0xE9 ; retn 0xFFFE ;  (1 found)
0x00402430: and al, 0xF0 ; inc eax ; add byte [ebx-0x0D], bl ; ret  ;  (1 found)
0x004026cc: and byte [ebp-0x7CF08A40], al ; les ebx,  [eax] ; xor eax, eax ; pop ebx ; ret  ;  (1 found)
0x0040a559: and byte [ebx+0x5E5B3CC4], al ; pop edi ; pop ebp ; ret  ;  (1 found)
0x00402a52: and byte [ebx+0x5E], bl ; pop edi ; ret  ;  (1 found)
0x00408229: and byte [ebx+0x5E], bl ; pop edi ; ret  ;  (1 found)
0x00409fbe: and byte [ebx+0x5E], bl ; pop edi ; ret  ;  (1 found)
0x00406169: and byte [ecx+0x468B0C46], cl ; add al, 0x89 ; retn 0xE083 ;  (1 found)
0x00409b2b: and byte [ecx], bh ; sal dword [edi-0x10], cl ; pop ebx ; ret  ;  (1 found)
0x0040ab1a: and byte [edx], dh ; inc esp ; add byte [eax+0x1C25FF90], dl ; xor al, byte [eax+eax-0x70] ; nop  ; jmp dword [0x00443218] ;  (1 found)
0x004066ee: and byte [esp+eax-0x77], dh ; retn 0xC031 ;  (1 found)
0x00401585: and cl, al ; inc eax ; add al, ch ; retn 0x0094 ;  (1 found)
0x004059fb: and dword [eax+eax], 0x89C08500 ; retn 0x0E7E ;  (1 found)
0x00402cbe: and dword [ebx-0x6AF0DE06], eax ; retn 0xB60F ;  (1 found)
0x00402cc1: and dword [edi], ecx ; xchg eax, ebp ; retn 0xB60F ;  (1 found)
0x0040623d: and dword [esi-0x70], 0xFFFFFF89 ; retn 0x448B ;  (1 found)
0x0040abc9: and eax, 0x004431C8 ; nop  ; nop  ; jmp dword [0x004431C4] ;  (1 found)
0x0040abc1: and eax, 0x004431CC ; nop  ; nop  ; jmp dword [0x004431C8] ;  (1 found)
0x0040abb9: and eax, 0x004431D0 ; nop  ; nop  ; jmp dword [0x004431CC] ;  (1 found)
0x0040abb1: and eax, 0x004431D4 ; nop  ; nop  ; jmp dword [0x004431D0] ;  (1 found)
0x0040aba9: and eax, 0x004431D8 ; nop  ; nop  ; jmp dword [0x004431D4] ;  (1 found)
0x0040aba1: and eax, 0x004431DC ; nop  ; nop  ; jmp dword [0x004431D8] ;  (1 found)
0x0040ab99: and eax, 0x004431E0 ; nop  ; nop  ; jmp dword [0x004431DC] ;  (1 found)
0x0040ab91: and eax, 0x004431E4 ; nop  ; nop  ; jmp dword [0x004431E0] ;  (1 found)
0x0040ab89: and eax, 0x004431E8 ; nop  ; nop  ; jmp dword [0x004431E4] ;  (1 found)
0x0040ab81: and eax, 0x004431EC ; nop  ; nop  ; jmp dword [0x004431E8] ;  (1 found)
0x0040ab79: and eax, 0x004431F0 ; nop  ; nop  ; jmp dword [0x004431EC] ;  (1 found)
0x0040ab71: and eax, 0x004431F4 ; nop  ; nop  ; jmp dword [0x004431F0] ;  (1 found)
0x0040ab69: and eax, 0x004431F8 ; nop  ; nop  ; jmp dword [0x004431F4] ;  (1 found)
0x0040ab61: and eax, 0x004431FC ; nop  ; nop  ; jmp dword [0x004431F8] ;  (1 found)
0x0040ab59: and eax, 0x00443200 ; nop  ; nop  ; jmp dword [0x004431FC] ;  (1 found)
0x0040ab51: and eax, 0x00443204 ; nop  ; nop  ; jmp dword [0x00443200] ;  (1 found)
0x0040ab49: and eax, 0x00443208 ; nop  ; nop  ; jmp dword [0x00443204] ;  (1 found)
0x0040ab41: and eax, 0x0044320C ; nop  ; nop  ; jmp dword [0x00443208] ;  (1 found)
0x0040ab39: and eax, 0x00443210 ; nop  ; nop  ; jmp dword [0x0044320C] ;  (1 found)
0x0040ab31: and eax, 0x00443214 ; nop  ; nop  ; jmp dword [0x00443210] ;  (1 found)
0x0040ab29: and eax, 0x00443218 ; nop  ; nop  ; jmp dword [0x00443214] ;  (1 found)
0x0040ab21: and eax, 0x0044321C ; nop  ; nop  ; jmp dword [0x00443218] ;  (1 found)
0x0040ab19: and eax, 0x00443220 ; nop  ; nop  ; jmp dword [0x0044321C] ;  (1 found)
0x0040ab11: and eax, 0x00443224 ; nop  ; nop  ; jmp dword [0x00443220] ;  (1 found)
0x0040ae51: and eax, 0x00443230 ; nop  ; nop  ; jmp dword [0x0044322C] ;  (1 found)
0x0040ab09: and eax, 0x00443238 ; nop  ; nop  ; jmp dword [0x00443224] ;  (1 found)
0x0040ab01: and eax, 0x00443240 ; nop  ; nop  ; jmp dword [0x00443238] ;  (1 found)
0x0040aaf9: and eax, 0x00443244 ; nop  ; nop  ; jmp dword [0x00443240] ;  (1 found)
0x0040aaf1: and eax, 0x0044324C ; nop  ; nop  ; jmp dword [0x00443244] ;  (1 found)
0x0040aae9: and eax, 0x00443250 ; nop  ; nop  ; jmp dword [0x0044324C] ;  (1 found)
0x0040aae1: and eax, 0x00443254 ; nop  ; nop  ; jmp dword [0x00443250] ;  (1 found)
0x0040aad9: and eax, 0x0044325C ; nop  ; nop  ; jmp dword [0x00443254] ;  (1 found)
0x0040aad1: and eax, 0x00443264 ; nop  ; nop  ; jmp dword [0x0044325C] ;  (1 found)
0x0040aac9: and eax, 0x00443270 ; nop  ; nop  ; jmp dword [0x00443264] ;  (1 found)
0x0040aac1: and eax, 0x00443274 ; nop  ; nop  ; jmp dword [0x00443270] ;  (1 found)
0x00401321: and eax, 0x00443278 ; lea esi, dword [esi+0x00] ; lea edi, dword [edi+0x00000000] ; jmp dword [0x00443268] ;  (1 found)
0x0040aab9: and eax, 0x0044327C ; nop  ; nop  ; jmp dword [0x00443274] ;  (1 found)
0x0040aab1: and eax, 0x00443280 ; nop  ; nop  ; jmp dword [0x0044327C] ;  (1 found)
0x0040aaa9: and eax, 0x00443284 ; nop  ; nop  ; jmp dword [0x00443280] ;  (1 found)
0x0040aaa1: and eax, 0x00443288 ; nop  ; nop  ; jmp dword [0x00443284] ;  (1 found)
0x0040aa99: and eax, 0x0044328C ; nop  ; nop  ; jmp dword [0x00443288] ;  (1 found)
0x0040aa91: and eax, 0x00443290 ; nop  ; nop  ; jmp dword [0x0044328C] ;  (1 found)
0x0040aa89: and eax, 0x00443294 ; nop  ; nop  ; jmp dword [0x00443290] ;  (1 found)
0x0040aa81: and eax, 0x00443298 ; nop  ; nop  ; jmp dword [0x00443294] ;  (1 found)
0x0040aa79: and eax, 0x0044329C ; nop  ; nop  ; jmp dword [0x00443298] ;  (1 found)
0x0040aa71: and eax, 0x004432A0 ; nop  ; nop  ; jmp dword [0x0044329C] ;  (1 found)
0x0040aa69: and eax, 0x004432A4 ; nop  ; nop  ; jmp dword [0x004432A0] ;  (1 found)
0x0040aa61: and eax, 0x004432A8 ; nop  ; nop  ; jmp dword [0x004432A4] ;  (1 found)
0x0040aa59: and eax, 0x004432AC ; nop  ; nop  ; jmp dword [0x004432A8] ;  (1 found)
0x0040aa51: and eax, 0x004432B0 ; nop  ; nop  ; jmp dword [0x004432AC] ;  (1 found)
0x0040aa49: and eax, 0x004432B4 ; nop  ; nop  ; jmp dword [0x004432B0] ;  (1 found)
0x0040aa41: and eax, 0x004432B8 ; nop  ; nop  ; jmp dword [0x004432B4] ;  (1 found)
0x0040aa39: and eax, 0x004432BC ; nop  ; nop  ; jmp dword [0x004432B8] ;  (1 found)
0x0040aa31: and eax, 0x004432C0 ; nop  ; nop  ; jmp dword [0x004432BC] ;  (1 found)
0x0040aa29: and eax, 0x004432C4 ; nop  ; nop  ; jmp dword [0x004432C0] ;  (1 found)
0x0040aa21: and eax, 0x004432C8 ; nop  ; nop  ; jmp dword [0x004432C4] ;  (1 found)
0x0040aa19: and eax, 0x004432CC ; nop  ; nop  ; jmp dword [0x004432C8] ;  (1 found)
0x0040aa11: and eax, 0x004432D0 ; nop  ; nop  ; jmp dword [0x004432CC] ;  (1 found)
0x0040aa09: and eax, 0x004432D4 ; nop  ; nop  ; jmp dword [0x004432D0] ;  (1 found)
0x0040aa01: and eax, 0x004432D8 ; nop  ; nop  ; jmp dword [0x004432D4] ;  (1 found)
0x0040a9f9: and eax, 0x004432DC ; nop  ; nop  ; jmp dword [0x004432D8] ;  (1 found)
0x0040a9f1: and eax, 0x004432E0 ; nop  ; nop  ; jmp dword [0x004432DC] ;  (1 found)
0x0040a9e9: and eax, 0x004432E4 ; nop  ; nop  ; jmp dword [0x004432E0] ;  (1 found)
0x0040a9e1: and eax, 0x004432E8 ; nop  ; nop  ; jmp dword [0x004432E4] ;  (1 found)
0x00401f81: and eax, 0x004432F4 ; nop  ; nop  ; jmp dword [0x004432F0] ;  (1 found)
0x00401f79: and eax, 0x004432F8 ; nop  ; nop  ; jmp dword [0x004432F4] ;  (1 found)
0x00401f71: and eax, 0x004432FC ; nop  ; nop  ; jmp dword [0x004432F8] ;  (1 found)
0x00401f69: and eax, 0x00443300 ; nop  ; nop  ; jmp dword [0x004432FC] ;  (1 found)
0x00401f61: and eax, 0x00443304 ; nop  ; nop  ; jmp dword [0x00443300] ;  (1 found)
0x00401f59: and eax, 0x00443308 ; nop  ; nop  ; jmp dword [0x00443304] ;  (1 found)
0x00401f51: and eax, 0x0044330C ; nop  ; nop  ; jmp dword [0x00443308] ;  (1 found)
0x00401f49: and eax, 0x00443310 ; nop  ; nop  ; jmp dword [0x0044330C] ;  (1 found)
0x00401f41: and eax, 0x00443314 ; nop  ; nop  ; jmp dword [0x00443310] ;  (1 found)
0x00401f39: and eax, 0x00443318 ; nop  ; nop  ; jmp dword [0x00443314] ;  (1 found)
0x00401f31: and eax, 0x0044331C ; nop  ; nop  ; jmp dword [0x00443318] ;  (1 found)
0x00401f22: bound eax, dword [eax] ; add byte [eax], al ; mov eax, 0x00000000 ; leave  ; ret  ;  (1 found)
0x00409b32: bsf ecx, ecx ; add eax, ecx ; pop ebx ; ret  ;  (1 found)
0x00409b33: bsf ecx, ecx ; add eax, ecx ; pop ebx ; ret  ;  (1 found)
0x00402483: call dword [0x0040AE70+ebx*4] ;  (1 found)
0x0040130a: call dword [0x00443248] ;  (1 found)
0x004012ea: call dword [0x00443248] ;  (1 found)
0x00402b9d: call dword [0x00443258] ;  (1 found)
0x0040212a: call dword [eax+0x0026748D] ;  (1 found)
0x0040228a: call dword [eax+0x0026748D] ;  (1 found)
0x0040383a: call dword [eax+0x0026748D] ;  (1 found)
0x00403dea: call dword [eax+0x0026748D] ;  (1 found)
0x0040405a: call dword [eax+0x0026748D] ;  (1 found)
0x00404ffa: call dword [eax+0x0026748D] ;  (1 found)
0x00404fea: call dword [eax+0x0026748D] ;  (1 found)
0x0040808a: call dword [eax+0x0026748D] ;  (1 found)
0x0040647a: call dword [eax+0x0026748D] ;  (1 found)
0x004073da: call dword [eax+0x0026748D] ;  (1 found)
0x004078ea: call dword [eax+0x0026748D] ;  (1 found)
0x0040838a: call dword [eax+0x0026748D] ;  (1 found)
0x00408e3a: call dword [eax+0x0026748D] ;  (1 found)
0x0040a58a: call dword [eax+0x0026748D] ;  (1 found)
0x0040a77a: call dword [eax+0x0026748D] ;  (1 found)
0x00404027: call dword [eax+0x0026B48D] ;  (1 found)
0x00405d97: call dword [eax+0x0026B48D] ;  (1 found)
0x00405bc7: call dword [eax+0x0026B48D] ;  (1 found)
0x00405fe7: call dword [eax+0x0026B48D] ;  (1 found)
0x00406737: call dword [eax+0x0026B48D] ;  (1 found)
0x00405915: call dword [eax+0x00] ;  (1 found)
0x0040112e: call dword [eax+0x0B2404C7] ;  (1 found)
0x004072ce: call dword [eax+0x0F25F980] ;  (1 found)
0x004083ac: call dword [eax+0x57559090] ;  (1 found)
0x00402b0a: call dword [eax-0x6F6F6F70] ;  (1 found)
0x00404cf3: call dword [eax-0x6F6F6F70] ;  (1 found)
0x00407ce2: call dword [eax-0x6F6F6F70] ;  (1 found)
0x004099da: call dword [eax-0x6F6F6F70] ;  (1 found)
0x0040acf9: call dword [eax-0x6F6F6F70] ;  (1 found)
0x0040ae68: call dword [eax-0x6F6F6F70] ;  (1 found)
0x0040ae40: call dword [eax-0x6F6F6F70] ;  (1 found)
0x0040232e: call dword [eax-0x76A76364] ;  (1 found)
0x00401d8e: call dword [eax] ;  (1 found)
0x0040a46f: call dword [ebp+0x57] ;  (1 found)
0x00401446: call eax ;  (1 found)
0x00402450: call eax ;  (1 found)
0x0040257f: call eax ;  (1 found)
0x00402612: call eax ;  (1 found)
0x004010a1: call eax ;  (1 found)
0x00401123: call eax ;  (1 found)
0x00401137: call eax ;  (1 found)
0x004011d7: call eax ;  (1 found)
0x0040a36c: call ecx ;  (1 found)
0x00403a64: call edi ;  (1 found)
0x004013f8: call edx ;  (1 found)
0x004013b5: call esi ;  (1 found)
0x00409e4a: clc  ; add dh, byte [esp+edx*2-0x7D] ; les ebx,  [eax] ; pop ebx ; ret  ;  (1 found)
0x00401407: clc  ; pop ebx ; pop esi ; pop ebp ; ret  ;  (1 found)
0x00401408: clc  ; pop ebx ; pop esi ; pop ebp ; ret  ;  (1 found)
0x00409bea: clc  ; pop ebx ; pop esi ; pop edi ; ret  ;  (1 found)
0x00401f7a: clc  ; xor al, byte [eax+eax-0x70] ; nop  ; jmp dword [0x004432F4] ;  (1 found)
0x0040ab6a: clc  ; xor dword [eax+eax-0x70], eax ; nop  ; jmp dword [0x004431F4] ;  (1 found)
0x00401e66: cld  ; leave  ; ret  ;  (1 found)
0x00401f72: cld  ; xor al, byte [eax+eax-0x70] ; nop  ; jmp dword [0x004432F8] ;  (1 found)
0x0040ab62: cld  ; xor dword [eax+eax-0x70], eax ; nop  ; jmp dword [0x004431F8] ;  (1 found)
0x00402cc0: cli  ; and dword [edi], ecx ; xchg eax, ebp ; retn 0xB60F ;  (1 found)
0x00401570: cli  ; inc eax ; add cl, cl ; ret  ;  (1 found)
0x004058f1: cmp ah, byte [0x830B8902+esi*2] ; les edx,  [eax] ; pop ebx ; ret  ;  (1 found)
0x00408e48: cmp al, 0x00 ; add byte [eax], al ; add byte [ecx], ch ; retn 0x5489 ;  (1 found)
0x00402ee6: cmp al, 0x31 ; rcr byte [ebx+0x5E], 0x0000005F ; pop ebp ; ret  ;  (1 found)
0x0040a55c: cmp al, 0x5B ; pop esi ; pop edi ; pop ebp ; ret  ;  (1 found)
0x0040a7ac: cmp al, 0x5B ; pop esi ; pop edi ; pop ebp ; ret  ;  (1 found)
0x0040a750: cmp al, 0x5B ; pop esi ; pop edi ; pop ebp ; ret  ;  (1 found)
0x0040961e: cmp al, 0x83 ; ret  ;  (1 found)
0x0040a951: cmp al, 0x89 ; adc dword [ebx+0x5E5B1CC4], eax ; pop edi ; pop ebp ; ret  ;  (1 found)
0x00402f87: cmp al, 0x8D ; inc edi ; add dword [ebx+0x5E], ebx ; pop edi ; pop ebp ; ret  ;  (1 found)
0x00402f3c: cmp al, 0x8D ; inc esi ; add dword [ebx+0x5E], ebx ; pop edi ; pop ebp ; ret  ;  (1 found)
0x004012dd: cmp al, 0xC3 ; nop  ; sub esp, 0x1C ; mov dword [esp], 0x00000001 ; call dword [0x00443248] ;  (1 found)
0x00406323: cmp byte [eax], al ; add byte [ebx+0x5E5B44C4], al ; ret  ;  (1 found)
0x0040593e: cmp byte [ebx+0x01], 0x00000003 ; sete al ; lea eax, dword [0x00000004+eax*4] ; add esp, 0x18 ; pop ebx ; ret  ;  (1 found)
0x0040a2ef: cmp byte [ebx+0x5E5B4CC4], al ; pop edi ; pop ebp ; ret  ;  (1 found)
0x0040830b: cmp byte [ebx-0x1776C33C], al ; pop ebx ; pop esi ; pop edi ; pop ebp ; ret  ;  (1 found)
0x0040ab0a: cmp byte [edx], dh ; inc esp ; add byte [eax+0x2425FF90], dl ; xor al, byte [eax+eax-0x70] ; nop  ; jmp dword [0x00443220] ;  (1 found)
0x00405ddb: cmp cl, byte [ebx-0x41F0D3A9] ; add bh, byte [ecx] ; ret  ;  (1 found)
0x004015ba: cmp dl, 0x00000040 ; add byte [ecx+0x42E82404], cl ; xchg eax, esp ; add byte [eax], al ; leave  ; ret  ;  (1 found)
0x00406252: cmp dword [eax], eax ; add byte [ebx+0x5E5B44C4], al ; ret  ;  (1 found)
0x00406227: cmp dword [eax], eax ; add byte [ebx+0x5E5B44C4], al ; ret  ;  (1 found)
0x004062f3: cmp dword [eax], eax ; add byte [ebx+0x5E5B44C4], al ; ret  ;  (1 found)
0x00408135: cmp eax, 0x6D7700FF ; mov ecx, dword [esp+0x50] ; mov byte [ecx], al ; mov eax, 0x00000001 ; add esp, 0x4C ; ret  ;  (1 found)
0x00401e7f: cmp ebx, eax ; ret  ;  (1 found)
0x004012d8: cwde  ; add byte [eax], al ; add esp, 0x3C ; ret  ;  (1 found)
0x0040aa82: cwde  ; xor al, byte [eax+eax-0x70] ; nop  ; jmp dword [0x00443294] ;  (1 found)
0x0040132b: daa  ; add byte [eax], al ; add byte [eax], al ; jmp dword [0x00443268] ;  (1 found)
0x0040131b: daa  ; add byte [eax], al ; add byte [eax], al ; jmp dword [0x00443278] ;  (1 found)
0x004012fb: daa  ; add byte [eax], al ; add byte [eax], al ; sub esp, 0x1C ; mov dword [esp], 0x00000002 ; call dword [0x00443248] ;  (1 found)
0x004025bb: daa  ; add byte [eax], al ; add byte [eax], al ; xor eax, eax ; ret  ;  (1 found)
0x00402d5b: daa  ; add byte [eax], al ; add byte [eax], al ; xor eax, eax ; ret  ;  (1 found)
0x00405452: das  ; add byte [eax], al ; add esp, 0x48 ; pop ebx ; ret  ;  (1 found)
0x00402294: dec dword [ebp+0x5E5BF465] ; pop edi ; pop ebp ; ret  ;  (1 found)
0x00401405: dec dword [ebp+0x5E5BF865] ; pop ebp ; ret  ;  (1 found)
0x00407b9b: dec dword [ebp-0x7CFFD98C] ; ret  ;  (1 found)
0x00406166: dec dword [ebx+0x46892046] ; or al, 0x8B ; inc esi ; add al, 0x89 ; retn 0xE083 ;  (1 found)
0x0040a555: dec dword [ebx-0x7CDFDBBC] ; les edi,  [ebx+ebx*2] ; pop esi ; pop edi ; pop ebp ; ret  ;  (1 found)
0x00406b11: dec dword [ecx+0x74F209FA] ; sbb al, 0x0F ; mov dh, 0x45 ; in al, 0x83 ; ret  ;  (1 found)
0x0040631d: dec dword [ecx-0x2517DBCC] ; cmp byte [eax], al ; add byte [ebx+0x5E5B44C4], al ; ret  ;  (1 found)
0x00406221: dec dword [ecx-0x2917DBCC] ; cmp dword [eax], eax ; add byte [ebx+0x5E5B44C4], al ; ret  ;  (1 found)
0x0040624c: dec dword [ecx-0x5417DBCC] ; cmp dword [eax], eax ; add byte [ebx+0x5E5B44C4], al ; ret  ;  (1 found)
0x0040a927: dec dword [ecx-0x6AF0E788] ; ret  ;  (1 found)
0x0040aca5: dec dword [ecx-0x7C057628] ; les ebx,  [ebx+ebx*2] ; pop esi ; pop edi ; pop ebp ; ret  ;  (1 found)
0x0040a32a: dec dword [edi] ; test ah, cl ; add byte [eax], al ; add dh, dh ; ret  ;  (1 found)
0x0040a2ea: dec eax ; adc byte [ebx-0x7CC7DBBC], cl ; les ecx,  [ebx+ebx*2+0x5E] ; pop edi ; pop ebp ; ret  ;  (1 found)
0x00402514: dec eax ; add al, byte [eax] ; add byte [eax+0x00000001], bh ; add esp, 0x1C ; retn 0x000C ;  (1 found)
0x00409744: dec eax ; or al, 0x89 ; ret  ;  (1 found)
0x00405457: dec eax ; pop ebx ; ret  ;  (1 found)
0x00406a69: dec ebp ; fmul qword [edi] ; xchg eax, esp ; retn 0xEA83 ;  (1 found)
0x00404a4e: dec ebp ; in al, 0x89 ; retn 0xCE89 ;  (1 found)
0x00401e78: dec ecx ; ret  ;  (1 found)
0x004058ea: dec edx ; add dword [ecx-0x7FF3DBB4], ecx ; cmp ah, byte [0x830B8902+esi*2] ; les edx,  [eax] ; pop ebx ; ret  ;  (1 found)
0x00405286: dec esp ; add byte [eax], al ; add byte [ebx+0x5E], bl ; pop edi ; pop ebp ; ret  ;  (1 found)
0x0040813b: dec esp ; and al, 0x50 ; mov byte [ecx], al ; mov eax, 0x00000001 ; add esp, 0x4C ; ret  ;  (1 found)
0x004028a0: dec esp ; pop ebx ; pop esi ; pop edi ; pop ebp ; ret  ;  (1 found)
0x00402922: dec esp ; pop ebx ; pop esi ; pop edi ; pop ebp ; ret  ;  (1 found)
0x004055fb: dec esp ; pop ebx ; pop esi ; pop edi ; pop ebp ; ret  ;  (1 found)
0x0040a2f2: dec esp ; pop ebx ; pop esi ; pop edi ; pop ebp ; ret  ;  (1 found)
0x00409e05: dec esp ; pop ebx ; pop esi ; pop edi ; pop ebp ; ret  ;  (1 found)
0x004081b9: dec esp ; ret  ;  (1 found)
0x00408147: dec esp ; ret  ;  (1 found)
0x0040aaf2: dec esp ; xor al, byte [eax+eax-0x70] ; nop  ; jmp dword [0x00443244] ;  (1 found)
0x00402609: div byte [eax+ecx-0x75] ; inc ebx ; add al, 0x89 ; xor al, 0x24 ; call eax ;  (1 found)
0x0040a347: div byte [esi+esi-0x77] ; div esi ; ret  ;  (1 found)
0x0040a34b: div esi ; ret  ;  (1 found)
0x00409b64: enter 0x0003, 0x00 ; mov dword [eax], ebx ; add esp, 0x18 ; add eax, 0x04 ; pop ebx ; ret  ;  (1 found)
0x0040abca: enter 0x4431, 0x00 ; nop  ; nop  ; jmp dword [0x004431C4] ;  (1 found)
0x0040aa22: enter 0x4432, 0x00 ; nop  ; nop  ; jmp dword [0x004432C4] ;  (1 found)
0x0040a5d3: enter 0x5B01, 0x5E ; ret  ;  (1 found)
0x00403bdd: enter 0x5E5B, 0x5F ; pop ebp ; ret  ;  (1 found)
0x0040ad91: enter 0xF289, 0x83 ; les ebx,  [ebx+ebx*2] ; pop esi ; pop edi ; pop ebp ; ret  ;  (1 found)
0x0040ad31: enter 0xF7F7, 0x89 ; sal byte [ecx], 1  ; rol byte [ebx+0x5E5B1CC4], cl ; pop edi ; pop ebp ; ret  ;  (1 found)
0x00406da1: enter 0xFFFD, 0xFF ; jmp dword [esi-0x77] ;  (1 found)
0x004030d5: fadd dword [ebx+0x5E5B2CC4] ; pop edi ; pop ebp ; ret  ;  (1 found)
0x004051c3: fadd qword [ebx+0x5E5B14C4] ; ret  ;  (1 found)
0x0040a0f8: fcomp dword [ebx+0x5E] ; pop edi ; pop ebp ; ret  ;  (1 found)
0x00405307: fcomp dword [ebx+0x5E] ; ret  ;  (1 found)
0x0040abaa: fdiv dword [ecx] ; inc esp ; add byte [eax-0x2BDA0070], dl ; xor dword [eax+eax-0x70], eax ; nop  ; jmp dword [0x004431D0] ;  (1 found)
0x0040aa02: fdiv dword [edx] ; inc esp ; add byte [eax-0x2BDA0070], dl ; xor al, byte [eax+eax-0x70] ; nop  ; jmp dword [0x004432D0] ;  (1 found)
0x0040aba2: fdiv qword [ecx] ; inc esp ; add byte [eax-0x27DA0070], dl ; xor dword [eax+eax-0x70], eax ; nop  ; jmp dword [0x004431D4] ;  (1 found)
0x0040a9fa: fdiv qword [edx] ; inc esp ; add byte [eax-0x27DA0070], dl ; xor al, byte [eax+eax-0x70] ; nop  ; jmp dword [0x004432D4] ;  (1 found)
0x004033d7: fdivr dword [ecx] ; ret  ;  (1 found)
0x00401834: fdivr st7, st0 ; rol dword [eax+0x00], 0xFFFFFFC7 ; inc ebp ; fmul dword [ebx] ; retn 0x0040 ;  (1 found)
0x00405faa: fiadd dword [ebx+0x5E5B1CC4] ; pop edi ; pop ebp ; ret  ;  (1 found)
0x00402585: fidiv word [ebp-0x13] ; add esp, 0x14 ; mov eax, 0x00000001 ; pop ebx ; pop esi ; retn 0x000C ;  (1 found)
0x00406322: fidivr dword [eax] ; add byte [eax], al ; add esp, 0x44 ; pop ebx ; pop esi ; ret  ;  (1 found)
0x00401e7e: fidivr dword [ecx] ; ret  ;  (1 found)
0x0040acb5: fisttp dword [ecx-0x7C057628] ; les ebx,  [ebx+ebx*2] ; pop esi ; pop edi ; pop ebp ; ret  ;  (1 found)
0x00403cf2: fisttp dword [edi] ; sahf  ; retn 0x150B ;  (1 found)
0x0040183b: fmul dword [ebx] ; retn 0x0040 ;  (1 found)
0x0040ac2d: fmul dword [ecx+0x1CC483FA] ; pop ebx ; pop esi ; pop edi ; pop ebp ; ret  ;  (1 found)
0x0040acb7: fmul dword [ecx+0x1CC483FA] ; pop ebx ; pop esi ; pop edi ; pop ebp ; ret  ;  (1 found)
0x0040aca7: fmul dword [ecx+0x1CC483FA] ; pop ebx ; pop esi ; pop edi ; pop ebp ; ret  ;  (1 found)
0x0040accb: fmul dword [ecx+0x1CC483FA] ; pop ebx ; pop esi ; pop edi ; pop ebp ; ret  ;  (1 found)
0x00402c19: fmul dword [ecx-0x39ED883E] ; add al, 0x16 ; add byte [ebx+0x5E5B24C4], al ; ret  ;  (1 found)
0x00406a67: fmul dword [ecx-0x6BF023B3] ; retn 0xEA83 ;  (1 found)
0x0040ac25: fmul dword [ecx-0x760A0831] ; ret  ;  (1 found)
0x00404c09: fmul qword [ebp-0x0F760B9B] ; pop ebx ; pop esi ; pop edi ; pop ebp ; ret  ;  (1 found)
0x00404c0a: fmul qword [ebp-0x0F760B9B] ; pop ebx ; pop esi ; pop edi ; pop ebp ; ret  ;  (1 found)
0x00406a6a: fmul qword [edi] ; xchg eax, esp ; retn 0xEA83 ;  (1 found)
0x00402704: fstenv  [ecx+ebp-0x77] ; retn 0x428B ;  (1 found)
0x00401b68: hlt  ; pop ebx ; pop esi ; pop edi ; pop ebp ; ret  ;  (1 found)
0x00401b67: hlt  ; pop ebx ; pop esi ; pop edi ; pop ebp ; ret  ;  (1 found)
0x004020c3: hlt  ; pop ebx ; pop esi ; pop edi ; pop ebp ; ret  ;  (1 found)
0x00402296: hlt  ; pop ebx ; pop esi ; pop edi ; pop ebp ; ret  ;  (1 found)
0x004020c4: hlt  ; pop ebx ; pop esi ; pop edi ; pop ebp ; ret  ;  (1 found)
0x00402297: hlt  ; pop ebx ; pop esi ; pop edi ; pop ebp ; ret  ;  (1 found)
0x00405ccb: hlt  ; pop ebx ; pop esi ; pop edi ; pop ebp ; ret  ;  (1 found)
0x00403667: hlt  ; pop ebx ; pop esi ; pop edi ; pop ebp ; ret  ;  (1 found)
0x00403668: hlt  ; pop ebx ; pop esi ; pop edi ; pop ebp ; ret  ;  (1 found)
0x00405cca: hlt  ; pop ebx ; pop esi ; pop edi ; pop ebp ; ret  ;  (1 found)
0x00405838: hlt  ; pop ebx ; pop esi ; pop edi ; pop ebp ; ret  ;  (1 found)
0x00405839: hlt  ; pop ebx ; pop esi ; pop edi ; pop ebp ; ret  ;  (1 found)
0x00406c56: hlt  ; pop ebx ; pop esi ; pop edi ; pop ebp ; ret  ;  (1 found)
0x00406c55: hlt  ; pop ebx ; pop esi ; pop edi ; pop ebp ; ret  ;  (1 found)
0x004073ba: hlt  ; pop ebx ; pop esi ; pop edi ; pop ebp ; ret  ;  (1 found)
0x004073b9: hlt  ; pop ebx ; pop esi ; pop edi ; pop ebp ; ret  ;  (1 found)
0x00401f82: hlt  ; xor al, byte [eax+eax-0x70] ; nop  ; jmp dword [0x004432F0] ;  (1 found)
0x0040ab72: hlt  ; xor dword [eax+eax-0x70], eax ; nop  ; jmp dword [0x004431F0] ;  (1 found)
0x0040ab92: in al, 0x31 ; inc esp ; add byte [eax-0x1FDA0070], dl ; xor dword [eax+eax-0x70], eax ; nop  ; jmp dword [0x004431DC] ;  (1 found)
0x0040a9ea: in al, 0x32 ; inc esp ; add byte [eax-0x1FDA0070], dl ; xor al, byte [eax+eax-0x70] ; nop  ; jmp dword [0x004432DC] ;  (1 found)
0x00406b1b: in al, 0x83 ; ret  ;  (1 found)
0x00404a4f: in al, 0x89 ; retn 0xCE89 ;  (1 found)
0x0040291e: in al, dx ; adc byte [ebx+0x5E5B4CC4], al ; pop edi ; pop ebp ; ret  ;  (1 found)
0x00409eb5: in al, dx ; add al, 0x83 ; les ebx,  [eax] ; pop ebx ; ret  ;  (1 found)
0x0040a05d: in al, dx ; add al, 0x83 ; les ebx,  [eax] ; pop ebx ; ret  ;  (1 found)
0x0040271d: in al, dx ; add al, 0x83 ; les ebx,  [eax] ; xor eax, eax ; pop ebx ; ret  ;  (1 found)
0x00402628: in al, dx ; add al, 0x83 ; les edx,  [ebx+ebx*2] ; pop esi ; ret  ;  (1 found)
0x004026f3: in al, dx ; add al, 0x85 ; sal byte [edi+edx-0x75], cl ; add bh, byte [ecx] ; ret  ;  (1 found)
0x004026a1: in al, dx ; add al, 0x89 ; add esp, 0x14 ; pop ebx ; pop esi ; ret  ;  (1 found)
0x0040145a: in al, dx ; add al, 0xC9 ; ret  ;  (1 found)
0x0040244c: in al, dx ; or al, 0x66 ; nop  ; call eax ;  (1 found)
0x00401301: in al, dx ; sbb al, 0xC7 ; add al, 0x24 ; add al, byte [eax] ; add byte [eax], al ; call dword [0x00443248] ;  (1 found)
0x004012e1: in al, dx ; sbb al, 0xC7 ; add al, 0x24 ; add dword [eax], eax ; add byte [eax], al ; call dword [0x00443248] ;  (1 found)
0x0040ab82: in al, dx ; xor dword [eax+eax-0x70], eax ; nop  ; jmp dword [0x004431E8] ;  (1 found)
0x00402587: in eax, dx ; add esp, 0x14 ; mov eax, 0x00000001 ; pop ebx ; pop esi ; retn 0x000C ;  (1 found)
0x00405dd3: inc dword [ebp+0x244489C0] ; or al, 0x74 ; cmp cl, byte [ebx-0x41F0D3A9] ; add bh, byte [ecx] ; ret  ;  (1 found)
0x00403123: inc dword [ebp-0x7C178A40] ; les ebp,  [ebx+ebx*2] ; pop esi ; pop edi ; pop ebp ; ret  ;  (1 found)
0x004059ab: inc dword [ebp-0x7CFA8A40] ; les ebp,  [eax] ; pop ebx ; ret  ;  (1 found)
0x00405774: inc dword [ebx+0x5E5B1CC4] ; pop edi ; pop ebp ; ret  ;  (1 found)
0x00408226: inc dword [ebx+0x5E5B20C4] ; pop edi ; ret  ;  (1 found)
0x00406199: inc dword [ebx+0x5E5B2CC4] ; pop edi ; pop ebp ; ret  ;  (1 found)
0x00407efd: inc dword [ebx+0x5E5B34C4] ; ret  ;  (1 found)
0x004068fe: inc dword [ebx+0x5E5B5CC4] ; pop edi ; pop ebp ; ret  ;  (1 found)
0x004082f7: inc dword [ebx-0x1776C33C] ; pop ebx ; pop esi ; pop edi ; pop ebp ; ret  ;  (1 found)
0x0040397a: inc eax ; add al, 0x83 ; ret  ;  (1 found)
0x00401587: inc eax ; add al, ch ; retn 0x0094 ;  (1 found)
0x00401c0b: inc eax ; add al, ch ; retn 0xFFF8 ;  (1 found)
0x00402939: inc eax ; add al, ch ; sar dh, 0xFFFFFFFF ; jmp dword [ecx+0x0040F05C] ;  (1 found)
0x00401731: inc eax ; add al, ch ; sbb byte [ebx-0x36700000], dl ; ret  ;  (1 found)
0x0040183e: inc eax ; add bh, al ; inc ebp ; aam 0x17 ; retn 0x0040 ;  (1 found)
0x00401837: inc eax ; add bh, al ; inc ebp ; fmul dword [ebx] ; retn 0x0040 ;  (1 found)
0x00404210: inc eax ; add byte [ebp+0x3FBEF465], cl ; add byte [eax], al ; add byte [ecx+0x5F5E5BF0], cl ; pop ebp ; ret  ;  (1 found)
0x004024c3: inc eax ; add byte [ebp-0x0CF88B40], al ; ret  ;  (1 found)
0x004024c2: inc eax ; add byte [ebp-0x0CF88B40], al ; ret  ;  (1 found)
0x0040a326: inc eax ; add byte [ebp-0x337BF001], al ; add byte [eax], al ; add dh, dh ; ret  ;  (1 found)
0x0040a327: inc eax ; add byte [ebp-0x337BF001], al ; add byte [eax], al ; add dh, dh ; ret  ;  (1 found)
0x00402775: inc eax ; add byte [ebp-0x479A8A40], al ; add dword [eax], eax ; add byte [eax], al ; add esp, 0x1C ; ret  ;  (1 found)
0x00402776: inc eax ; add byte [ebp-0x479A8A40], al ; add dword [eax], eax ; add byte [eax], al ; add esp, 0x1C ; ret  ;  (1 found)
0x004049b5: inc eax ; add byte [ebp-0x76A40B9B], cl ; pop esi ; pop edi ; pop ebp ; ret  ;  (1 found)
0x004049b4: inc eax ; add byte [ebp-0x76A40B9B], cl ; pop esi ; pop edi ; pop ebp ; ret  ;  (1 found)
0x00402461: inc eax ; add byte [ebp-0x7C168A40], al ; les ecx,  [ebx+esi*8] ; ret  ;  (1 found)
0x0040263a: inc eax ; add byte [ebp-0x7CEF8A40], al ; les edx,  [ecx+ecx*4] ; pop ebx ; pop esi ; ret  ;  (1 found)
0x00402639: inc eax ; add byte [ebp-0x7CEF8A40], al ; les edx,  [ecx+ecx*4] ; pop ebx ; pop esi ; ret  ;  (1 found)
0x00402443: inc eax ; add byte [ebx+0x74C08500], cl ; pop ds ; sub esp, 0x0C ; nop  ; call eax ;  (1 found)
0x00402432: inc eax ; add byte [ebx-0x0D], bl ; ret  ;  (1 found)
0x00402431: inc eax ; add byte [ebx-0x0D], bl ; ret  ;  (1 found)
0x00406eeb: inc eax ; add byte [ecx+0x0107E283], bl ; retn 0xFAC1 ;  (1 found)
0x004072af: inc eax ; add byte [ecx+0x0107E283], bl ; retn 0xFAC1 ;  (1 found)
0x004015bc: inc eax ; add byte [ecx+0x42E82404], cl ; xchg eax, esp ; add byte [eax], al ; leave  ; ret  ;  (1 found)
0x0040590e: inc eax ; add byte [ecx-0x17FBDBBC], cl ; call dword [eax+0x00] ;  (1 found)
0x0040a02f: inc eax ; add byte [ecx-0x7CE48BED], cl ; les ebx,  [eax] ; pop ebx ; ret  ;  (1 found)
0x004027c0: inc eax ; add byte [ecx], al ; add byte [eax], al ; add byte [eax+0x00000001], bh ; add esp, 0x1C ; ret  ;  (1 found)
0x004027bf: inc eax ; add byte [ecx], al ; add byte [eax], al ; add byte [eax+0x00000001], bh ; add esp, 0x1C ; ret  ;  (1 found)
0x00401571: inc eax ; add cl, cl ; ret  ;  (1 found)
0x00409fb6: inc eax ; or al, 0x00 ; add byte [eax], al ; add byte [ebx+0x5E5B20C4], al ; pop edi ; ret  ;  (1 found)
0x0040643e: inc eax ; pop ebx ; pop esi ; pop edi ; ret  ;  (1 found)
0x00406403: inc eax ; pop ebx ; pop esi ; pop edi ; ret  ;  (1 found)
0x0040ab02: inc eax ; xor al, byte [eax+eax-0x70] ; nop  ; jmp dword [0x00443238] ;  (1 found)
0x00401841: inc ebp ; aam 0x17 ; retn 0x0040 ;  (1 found)
0x00406da0: inc ebp ; enter 0xFFFD, 0xFF ; jmp dword [esi-0x77] ;  (1 found)
0x00401833: inc ebp ; fdivr st7, st0 ; rol dword [eax+0x00], 0xFFFFFFC7 ; inc ebp ; fmul dword [ebx] ; retn 0x0040 ;  (1 found)
0x0040183a: inc ebp ; fmul dword [ebx] ; retn 0x0040 ;  (1 found)
0x00406a66: inc ebp ; fmul dword [ecx-0x6BF023B3] ; retn 0xEA83 ;  (1 found)
0x00406b1a: inc ebp ; in al, 0x83 ; ret  ;  (1 found)
0x00403535: inc ebp ; mov ah, 0x83 ; retn 0x8901 ;  (1 found)
0x00407b7a: inc ebp ; mov cl, ch ; retn 0xFFF8 ;  (1 found)
0x00403977: inc ebp ; mov esp, 0x8304408B ; ret  ;  (1 found)
0x004073b6: inc ebp ; ror byte [ebp+0x5E5BF465], 1  ; pop edi ; pop ebp ; ret  ;  (1 found)
0x004079cc: inc ebp ; test al, 0x83 ; ret  ;  (1 found)
0x004078f9: inc ebp ; test al, 0x83 ; ret  ;  (1 found)
0x0040260d: inc ebx ; add al, 0x89 ; xor al, 0x24 ; call eax ;  (1 found)
0x004092b2: inc ebx ; push dword [edx+ebp*8-0x7D] ; retn 0xBE01 ;  (1 found)
0x00402c51: inc ecx ; add byte [eax], al ; add esp, 0x24 ; pop ebx ; pop esi ; ret  ;  (1 found)
0x00404558: inc ecx ; jmp dword [ebx+0x0040F078] ;  (1 found)
0x0040111b: inc edi ; add al, 0x24 ; add al, 0x00 ; add byte [eax], al ; call eax ;  (1 found)
0x00401be1: inc edi ; add al, 0x24 ; push eax ; ret  ;  (1 found)
0x00403970: inc edi ; add al, 0x85 ; sal byte [edi+edx-0x75], 0x00000045 ; mov esp, 0x8304408B ; ret  ;  (1 found)
0x00402f89: inc edi ; add dword [ebx+0x5E], ebx ; pop edi ; pop ebp ; ret  ;  (1 found)
0x00406d9e: inc edi ; inc ebp ; enter 0xFFFD, 0xFF ; jmp dword [esi-0x77] ;  (1 found)
0x00401455: inc edi ; xchg eax, edi ; add byte [eax], al ; sub esp, 0x04 ; leave  ; ret  ;  (1 found)
0x004015c2: inc edx ; xchg eax, esp ; add byte [eax], al ; leave  ; ret  ;  (1 found)
0x0040616e: inc esi ; add al, 0x89 ; retn 0xE083 ;  (1 found)
0x00402f3e: inc esi ; add dword [ebx+0x5E], ebx ; pop edi ; pop ebp ; ret  ;  (1 found)
0x00406168: inc esi ; and byte [ecx+0x468B0C46], cl ; add al, 0x89 ; retn 0xE083 ;  (1 found)
0x00403be4: inc esi ; or al, 0x00 ; add byte [eax], al ; add bl, ch ; retn 0x748D ;  (1 found)
0x0040616b: inc esi ; or al, 0x8B ; inc esi ; add al, 0x89 ; retn 0xE083 ;  (1 found)
0x0040ab54: inc esp ; add byte [eax+0x0025FF90], dl ; xor al, byte [eax+eax-0x70] ; nop  ; jmp dword [0x004431FC] ;  (1 found)
0x00401f64: inc esp ; add byte [eax+0x0025FF90], dl ; xor eax, dword [eax+eax-0x70] ; nop  ; jmp dword [0x004432FC] ;  (1 found)
0x0040ab4c: inc esp ; add byte [eax+0x0425FF90], dl ; xor al, byte [eax+eax-0x70] ; nop  ; jmp dword [0x00443200] ;  (1 found)
0x00401f5c: inc esp ; add byte [eax+0x0425FF90], dl ; xor eax, dword [eax+eax-0x70] ; nop  ; jmp dword [0x00443300] ;  (1 found)
0x0040ab44: inc esp ; add byte [eax+0x0825FF90], dl ; xor al, byte [eax+eax-0x70] ; nop  ; jmp dword [0x00443204] ;  (1 found)
0x00401f54: inc esp ; add byte [eax+0x0825FF90], dl ; xor eax, dword [eax+eax-0x70] ; nop  ; jmp dword [0x00443304] ;  (1 found)
0x0040ab3c: inc esp ; add byte [eax+0x0C25FF90], dl ; xor al, byte [eax+eax-0x70] ; nop  ; jmp dword [0x00443208] ;  (1 found)
0x00401f4c: inc esp ; add byte [eax+0x0C25FF90], dl ; xor eax, dword [eax+eax-0x70] ; nop  ; jmp dword [0x00443308] ;  (1 found)
0x0040ab34: inc esp ; add byte [eax+0x1025FF90], dl ; xor al, byte [eax+eax-0x70] ; nop  ; jmp dword [0x0044320C] ;  (1 found)
0x00401f44: inc esp ; add byte [eax+0x1025FF90], dl ; xor eax, dword [eax+eax-0x70] ; nop  ; jmp dword [0x0044330C] ;  (1 found)
0x0040ab2c: inc esp ; add byte [eax+0x1425FF90], dl ; xor al, byte [eax+eax-0x70] ; nop  ; jmp dword [0x00443210] ;  (1 found)
0x00401f3c: inc esp ; add byte [eax+0x1425FF90], dl ; xor eax, dword [eax+eax-0x70] ; nop  ; jmp dword [0x00443310] ;  (1 found)
0x0040ab24: inc esp ; add byte [eax+0x1825FF90], dl ; xor al, byte [eax+eax-0x70] ; nop  ; jmp dword [0x00443214] ;  (1 found)
0x00401f34: inc esp ; add byte [eax+0x1825FF90], dl ; xor eax, dword [eax+eax-0x70] ; nop  ; jmp dword [0x00443314] ;  (1 found)
0x0040ab1c: inc esp ; add byte [eax+0x1C25FF90], dl ; xor al, byte [eax+eax-0x70] ; nop  ; jmp dword [0x00443218] ;  (1 found)
0x0040ab14: inc esp ; add byte [eax+0x2025FF90], dl ; xor al, byte [eax+eax-0x70] ; nop  ; jmp dword [0x0044321C] ;  (1 found)
0x0040ab0c: inc esp ; add byte [eax+0x2425FF90], dl ; xor al, byte [eax+eax-0x70] ; nop  ; jmp dword [0x00443220] ;  (1 found)
0x0040ab04: inc esp ; add byte [eax+0x3825FF90], dl ; xor al, byte [eax+eax-0x70] ; nop  ; jmp dword [0x00443224] ;  (1 found)
0x0040aafc: inc esp ; add byte [eax+0x4025FF90], dl ; xor al, byte [eax+eax-0x70] ; nop  ; jmp dword [0x00443238] ;  (1 found)
0x0040aaf4: inc esp ; add byte [eax+0x4425FF90], dl ; xor al, byte [eax+eax-0x70] ; nop  ; jmp dword [0x00443240] ;  (1 found)
0x0040aaec: inc esp ; add byte [eax+0x4C25FF90], dl ; xor al, byte [eax+eax-0x70] ; nop  ; jmp dword [0x00443244] ;  (1 found)
0x0040aae4: inc esp ; add byte [eax+0x5025FF90], dl ; xor al, byte [eax+eax-0x70] ; nop  ; jmp dword [0x0044324C] ;  (1 found)
0x0040aadc: inc esp ; add byte [eax+0x5425FF90], dl ; xor al, byte [eax+eax-0x70] ; nop  ; jmp dword [0x00443250] ;  (1 found)
0x0040aad4: inc esp ; add byte [eax+0x5C25FF90], dl ; xor al, byte [eax+eax-0x70] ; nop  ; jmp dword [0x00443254] ;  (1 found)
0x0040aacc: inc esp ; add byte [eax+0x6425FF90], dl ; xor al, byte [eax+eax-0x70] ; nop  ; jmp dword [0x0044325C] ;  (1 found)
0x0040aac4: inc esp ; add byte [eax+0x7025FF90], dl ; xor al, byte [eax+eax-0x70] ; nop  ; jmp dword [0x00443264] ;  (1 found)
0x0040aabc: inc esp ; add byte [eax+0x7425FF90], dl ; xor al, byte [eax+eax-0x70] ; nop  ; jmp dword [0x00443270] ;  (1 found)
0x0040aab4: inc esp ; add byte [eax+0x7C25FF90], dl ; xor al, byte [eax+eax-0x70] ; nop  ; jmp dword [0x00443274] ;  (1 found)
0x00401f6c: inc esp ; add byte [eax-0x03DA0070], dl ; xor al, byte [eax+eax-0x70] ; nop  ; jmp dword [0x004432F8] ;  (1 found)
0x0040ab5c: inc esp ; add byte [eax-0x03DA0070], dl ; xor dword [eax+eax-0x70], eax ; nop  ; jmp dword [0x004431F8] ;  (1 found)
0x00401f74: inc esp ; add byte [eax-0x07DA0070], dl ; xor al, byte [eax+eax-0x70] ; nop  ; jmp dword [0x004432F4] ;  (1 found)
0x0040ab64: inc esp ; add byte [eax-0x07DA0070], dl ; xor dword [eax+eax-0x70], eax ; nop  ; jmp dword [0x004431F4] ;  (1 found)
0x00401f7c: inc esp ; add byte [eax-0x0BDA0070], dl ; xor al, byte [eax+eax-0x70] ; nop  ; jmp dword [0x004432F0] ;  (1 found)
0x0040ab6c: inc esp ; add byte [eax-0x0BDA0070], dl ; xor dword [eax+eax-0x70], eax ; nop  ; jmp dword [0x004431F0] ;  (1 found)
0x0040ab74: inc esp ; add byte [eax-0x0FDA0070], dl ; xor dword [eax+eax-0x70], eax ; nop  ; jmp dword [0x004431EC] ;  (1 found)
0x0040ab7c: inc esp ; add byte [eax-0x13DA0070], dl ; xor dword [eax+eax-0x70], eax ; nop  ; jmp dword [0x004431E8] ;  (1 found)
0x0040ab84: inc esp ; add byte [eax-0x17DA0070], dl ; xor dword [eax+eax-0x70], eax ; nop  ; jmp dword [0x004431E4] ;  (1 found)
0x0040a9e4: inc esp ; add byte [eax-0x1BDA0070], dl ; xor al, byte [eax+eax-0x70] ; nop  ; jmp dword [0x004432E0] ;  (1 found)
0x0040ab8c: inc esp ; add byte [eax-0x1BDA0070], dl ; xor dword [eax+eax-0x70], eax ; nop  ; jmp dword [0x004431E0] ;  (1 found)
0x0040a9ec: inc esp ; add byte [eax-0x1FDA0070], dl ; xor al, byte [eax+eax-0x70] ; nop  ; jmp dword [0x004432DC] ;  (1 found)
0x0040ab94: inc esp ; add byte [eax-0x1FDA0070], dl ; xor dword [eax+eax-0x70], eax ; nop  ; jmp dword [0x004431DC] ;  (1 found)
0x0040a9f4: inc esp ; add byte [eax-0x23DA0070], dl ; xor al, byte [eax+eax-0x70] ; nop  ; jmp dword [0x004432D8] ;  (1 found)
0x0040ab9c: inc esp ; add byte [eax-0x23DA0070], dl ; xor dword [eax+eax-0x70], eax ; nop  ; jmp dword [0x004431D8] ;  (1 found)
0x0040a9fc: inc esp ; add byte [eax-0x27DA0070], dl ; xor al, byte [eax+eax-0x70] ; nop  ; jmp dword [0x004432D4] ;  (1 found)
0x0040aba4: inc esp ; add byte [eax-0x27DA0070], dl ; xor dword [eax+eax-0x70], eax ; nop  ; jmp dword [0x004431D4] ;  (1 found)
0x0040aa04: inc esp ; add byte [eax-0x2BDA0070], dl ; xor al, byte [eax+eax-0x70] ; nop  ; jmp dword [0x004432D0] ;  (1 found)
0x0040abac: inc esp ; add byte [eax-0x2BDA0070], dl ; xor dword [eax+eax-0x70], eax ; nop  ; jmp dword [0x004431D0] ;  (1 found)
0x0040aa0c: inc esp ; add byte [eax-0x2FDA0070], dl ; xor al, byte [eax+eax-0x70] ; nop  ; jmp dword [0x004432CC] ;  (1 found)
0x0040abb4: inc esp ; add byte [eax-0x2FDA0070], dl ; xor dword [eax+eax-0x70], eax ; nop  ; jmp dword [0x004431CC] ;  (1 found)
0x0040aa14: inc esp ; add byte [eax-0x33DA0070], dl ; xor al, byte [eax+eax-0x70] ; nop  ; jmp dword [0x004432C8] ;  (1 found)
0x0040abbc: inc esp ; add byte [eax-0x33DA0070], dl ; xor dword [eax+eax-0x70], eax ; nop  ; jmp dword [0x004431C8] ;  (1 found)
0x0040aa1c: inc esp ; add byte [eax-0x37DA0070], dl ; xor al, byte [eax+eax-0x70] ; nop  ; jmp dword [0x004432C4] ;  (1 found)
0x0040abc4: inc esp ; add byte [eax-0x37DA0070], dl ; xor dword [eax+eax-0x70], eax ; nop  ; jmp dword [0x004431C4] ;  (1 found)
0x0040aa24: inc esp ; add byte [eax-0x3BDA0070], dl ; xor al, byte [eax+eax-0x70] ; nop  ; jmp dword [0x004432C0] ;  (1 found)
0x0040aa2c: inc esp ; add byte [eax-0x3FDA0070], dl ; xor al, byte [eax+eax-0x70] ; nop  ; jmp dword [0x004432BC] ;  (1 found)
0x0040aa34: inc esp ; add byte [eax-0x43DA0070], dl ; xor al, byte [eax+eax-0x70] ; nop  ; jmp dword [0x004432B8] ;  (1 found)
0x0040aa3c: inc esp ; add byte [eax-0x47DA0070], dl ; xor al, byte [eax+eax-0x70] ; nop  ; jmp dword [0x004432B4] ;  (1 found)
0x0040aa44: inc esp ; add byte [eax-0x4BDA0070], dl ; xor al, byte [eax+eax-0x70] ; nop  ; jmp dword [0x004432B0] ;  (1 found)
0x0040aa4c: inc esp ; add byte [eax-0x4FDA0070], dl ; xor al, byte [eax+eax-0x70] ; nop  ; jmp dword [0x004432AC] ;  (1 found)
0x0040aa54: inc esp ; add byte [eax-0x53DA0070], dl ; xor al, byte [eax+eax-0x70] ; nop  ; jmp dword [0x004432A8] ;  (1 found)
0x0040aa5c: inc esp ; add byte [eax-0x57DA0070], dl ; xor al, byte [eax+eax-0x70] ; nop  ; jmp dword [0x004432A4] ;  (1 found)
0x0040aa64: inc esp ; add byte [eax-0x5BDA0070], dl ; xor al, byte [eax+eax-0x70] ; nop  ; jmp dword [0x004432A0] ;  (1 found)
0x0040aa6c: inc esp ; add byte [eax-0x5FDA0070], dl ; xor al, byte [eax+eax-0x70] ; nop  ; jmp dword [0x0044329C] ;  (1 found)
0x0040aa74: inc esp ; add byte [eax-0x63DA0070], dl ; xor al, byte [eax+eax-0x70] ; nop  ; jmp dword [0x00443298] ;  (1 found)
0x0040aa7c: inc esp ; add byte [eax-0x67DA0070], dl ; xor al, byte [eax+eax-0x70] ; nop  ; jmp dword [0x00443294] ;  (1 found)
0x0040aa84: inc esp ; add byte [eax-0x6BDA0070], dl ; xor al, byte [eax+eax-0x70] ; nop  ; jmp dword [0x00443290] ;  (1 found)
0x0040aa8c: inc esp ; add byte [eax-0x6FDA0070], dl ; xor al, byte [eax+eax-0x70] ; nop  ; jmp dword [0x0044328C] ;  (1 found)
0x0040aa94: inc esp ; add byte [eax-0x73DA0070], dl ; xor al, byte [eax+eax-0x70] ; nop  ; jmp dword [0x00443288] ;  (1 found)
0x0040aa9c: inc esp ; add byte [eax-0x77DA0070], dl ; xor al, byte [eax+eax-0x70] ; nop  ; jmp dword [0x00443284] ;  (1 found)
0x0040aaa4: inc esp ; add byte [eax-0x7BDA0070], dl ; xor al, byte [eax+eax-0x70] ; nop  ; jmp dword [0x00443280] ;  (1 found)
0x0040aaac: inc esp ; add byte [eax-0x7FDA0070], dl ; xor al, byte [eax+eax-0x70] ; nop  ; jmp dword [0x0044327C] ;  (1 found)
0x00401324: inc esp ; add byte [ebp-0x4372FF8A], cl ; daa  ; add byte [eax], al ; add byte [eax], al ; jmp dword [0x00443268] ;  (1 found)
0x004011c9: inc esp ; and al, 0x04 ; add al, byte [eax] ; add byte [eax], al ; mov dword [esp], 0x00000000 ; call eax ;  (1 found)
0x00403a59: inc esp ; and al, 0x04 ; mov esi, dword [ebp-0x44] ; mov eax, dword [esi] ; mov dword [esp], eax ; call edi ;  (1 found)
0x00401ebd: inc esp ; and al, 0x04 ; retn 0x40C6 ;  (1 found)
0x00406257: inc esp ; pop ebx ; pop esi ; ret  ;  (1 found)
0x0040622c: inc esp ; pop ebx ; pop esi ; ret  ;  (1 found)
0x004062f8: inc esp ; pop ebx ; pop esi ; ret  ;  (1 found)
0x00406328: inc esp ; pop ebx ; pop esi ; ret  ;  (1 found)
0x0040aafa: inc esp ; xor al, byte [eax+eax-0x70] ; nop  ; jmp dword [0x00443240] ;  (1 found)
0x00406ee9: insb  ; leave  ; inc eax ; add byte [ecx+0x0107E283], bl ; retn 0xFAC1 ;  (1 found)
0x004072ad: insb  ; leave  ; inc eax ; add byte [ecx+0x0107E283], bl ; retn 0xFAC1 ;  (1 found)
0x0040590c: insb  ; leave  ; inc eax ; add byte [ecx-0x17FBDBBC], cl ; call dword [eax+0x00] ;  (1 found)
0x00408139: insd  ; mov ecx, dword [esp+0x50] ; mov byte [ecx], al ; mov eax, 0x00000001 ; add esp, 0x4C ; ret  ;  (1 found)
0x0040a32d: int3  ; add byte [eax], al ; add dh, dh ; ret  ;  (1 found)
0x0040aa1a: int3  ; xor al, byte [eax+eax-0x70] ; nop  ; jmp dword [0x004432C8] ;  (1 found)
0x0040abc2: int3  ; xor dword [eax+eax-0x70], eax ; nop  ; jmp dword [0x004431C8] ;  (1 found)
0x0040520f: jmp dword [0x0040C8A4+eax*4] ;  (1 found)
0x00407378: jmp dword [0x0040C9C0+eax*4] ;  (1 found)
0x004083df: jmp dword [0x0040CB40+eax*4] ;  (1 found)
0x0040abd0: jmp dword [0x004431C4] ;  (1 found)
0x0040abc8: jmp dword [0x004431C8] ;  (1 found)
0x0040abc0: jmp dword [0x004431CC] ;  (1 found)
0x0040abb8: jmp dword [0x004431D0] ;  (1 found)
0x0040abb0: jmp dword [0x004431D4] ;  (1 found)
0x0040aba8: jmp dword [0x004431D8] ;  (1 found)
0x0040aba0: jmp dword [0x004431DC] ;  (1 found)
0x0040ab98: jmp dword [0x004431E0] ;  (1 found)
0x0040ab90: jmp dword [0x004431E4] ;  (1 found)
0x0040ab88: jmp dword [0x004431E8] ;  (1 found)
0x0040ab80: jmp dword [0x004431EC] ;  (1 found)
0x0040ab78: jmp dword [0x004431F0] ;  (1 found)
0x0040ab70: jmp dword [0x004431F4] ;  (1 found)
0x0040ab68: jmp dword [0x004431F8] ;  (1 found)
0x0040ab60: jmp dword [0x004431FC] ;  (1 found)
0x0040ab58: jmp dword [0x00443200] ;  (1 found)
0x0040ab50: jmp dword [0x00443204] ;  (1 found)
0x0040ab48: jmp dword [0x00443208] ;  (1 found)
0x0040ab40: jmp dword [0x0044320C] ;  (1 found)
0x0040ab38: jmp dword [0x00443210] ;  (1 found)
0x0040ab30: jmp dword [0x00443214] ;  (1 found)
0x0040ab28: jmp dword [0x00443218] ;  (1 found)
0x0040ab20: jmp dword [0x0044321C] ;  (1 found)
0x0040ab18: jmp dword [0x00443220] ;  (1 found)
0x0040ab10: jmp dword [0x00443224] ;  (1 found)
0x0040ae58: jmp dword [0x0044322C] ;  (1 found)
0x0040ae50: jmp dword [0x00443230] ;  (1 found)
0x0040ab08: jmp dword [0x00443238] ;  (1 found)
0x0040ab00: jmp dword [0x00443240] ;  (1 found)
0x0040aaf8: jmp dword [0x00443244] ;  (1 found)
0x0040aaf0: jmp dword [0x0044324C] ;  (1 found)
0x0040aae8: jmp dword [0x00443250] ;  (1 found)
0x0040aae0: jmp dword [0x00443254] ;  (1 found)
0x0040aad8: jmp dword [0x0044325C] ;  (1 found)
0x0040aad0: jmp dword [0x00443264] ;  (1 found)
0x00401330: jmp dword [0x00443268] ;  (1 found)
0x0040aac8: jmp dword [0x00443270] ;  (1 found)
0x0040aac0: jmp dword [0x00443274] ;  (1 found)
0x00401320: jmp dword [0x00443278] ;  (1 found)
0x0040aab8: jmp dword [0x0044327C] ;  (1 found)
0x0040aab0: jmp dword [0x00443280] ;  (1 found)
0x0040aaa8: jmp dword [0x00443284] ;  (1 found)
0x0040aaa0: jmp dword [0x00443288] ;  (1 found)
0x0040aa98: jmp dword [0x0044328C] ;  (1 found)
0x0040aa90: jmp dword [0x00443290] ;  (1 found)
0x0040aa88: jmp dword [0x00443294] ;  (1 found)
0x0040aa80: jmp dword [0x00443298] ;  (1 found)
0x0040aa78: jmp dword [0x0044329C] ;  (1 found)
0x0040aa70: jmp dword [0x004432A0] ;  (1 found)
0x0040aa68: jmp dword [0x004432A4] ;  (1 found)
0x0040aa60: jmp dword [0x004432A8] ;  (1 found)
0x0040aa58: jmp dword [0x004432AC] ;  (1 found)
0x0040aa50: jmp dword [0x004432B0] ;  (1 found)
0x0040aa48: jmp dword [0x004432B4] ;  (1 found)
0x0040aa40: jmp dword [0x004432B8] ;  (1 found)
0x0040aa38: jmp dword [0x004432BC] ;  (1 found)
0x0040aa30: jmp dword [0x004432C0] ;  (1 found)
0x0040aa28: jmp dword [0x004432C4] ;  (1 found)
0x0040aa20: jmp dword [0x004432C8] ;  (1 found)
0x0040aa18: jmp dword [0x004432CC] ;  (1 found)
0x0040aa10: jmp dword [0x004432D0] ;  (1 found)
0x0040aa08: jmp dword [0x004432D4] ;  (1 found)
0x0040aa00: jmp dword [0x004432D8] ;  (1 found)
0x0040a9f8: jmp dword [0x004432DC] ;  (1 found)
0x0040a9f0: jmp dword [0x004432E0] ;  (1 found)
0x0040a9e8: jmp dword [0x004432E4] ;  (1 found)
0x0040a9e0: jmp dword [0x004432E8] ;  (1 found)
0x00401f88: jmp dword [0x004432F0] ;  (1 found)
0x00401f80: jmp dword [0x004432F4] ;  (1 found)
0x00401f78: jmp dword [0x004432F8] ;  (1 found)
0x00401f70: jmp dword [0x004432FC] ;  (1 found)
0x00401f68: jmp dword [0x00443300] ;  (1 found)
0x00401f60: jmp dword [0x00443304] ;  (1 found)
0x00401f58: jmp dword [0x00443308] ;  (1 found)
0x00401f50: jmp dword [0x0044330C] ;  (1 found)
0x00401f48: jmp dword [0x00443310] ;  (1 found)
0x00401f40: jmp dword [0x00443314] ;  (1 found)
0x00401f38: jmp dword [0x00443318] ;  (1 found)
0x00401f30: jmp dword [0x0044331C] ;  (1 found)
0x0040ae73: jmp dword [eax-0x52] ;  (1 found)
0x004083fc: jmp dword [eax] ;  (1 found)
0x00403db9: jmp dword [ebx+0x0040B020] ;  (1 found)
0x00404088: jmp dword [ebx+0x0040B020] ;  (1 found)
0x00404559: jmp dword [ebx+0x0040F078] ;  (1 found)
0x0040293f: jmp dword [ecx+0x0040F05C] ;  (1 found)
0x004044cf: jmp dword [ecx+0x0040F07C] ;  (1 found)
0x00403f10: jmp dword [ecx+0x0040F07C] ;  (1 found)
0x0040428b: jmp dword [ecx+0x0040F07C] ;  (1 found)
0x00402234: jmp dword [ecx+0x0044326C] ;  (1 found)
0x00402f0d: jmp dword [esi-0x70] ;  (1 found)
0x0040300d: jmp dword [esi-0x70] ;  (1 found)
0x004052ad: jmp dword [esi-0x70] ;  (1 found)
0x00407e7d: jmp dword [esi-0x70] ;  (1 found)
0x004069ad: jmp dword [esi-0x70] ;  (1 found)
0x0040893d: jmp dword [esi-0x70] ;  (1 found)
0x00409b9d: jmp dword [esi-0x70] ;  (1 found)
0x00408035: jmp dword [esi-0x77] ;  (1 found)
0x00406a31: jmp dword [esi-0x77] ;  (1 found)
0x00406dfe: jmp dword [esi-0x77] ;  (1 found)
0x00406da5: jmp dword [esi-0x77] ;  (1 found)
0x00404ce2: jmp dword [esi-0x7D] ;  (1 found)
0x00404c54: jmp dword [esi-0x7D] ;  (1 found)
0x004069fd: jmp dword [esi-0x7D] ;  (1 found)
0x00401862: jmp eax ;  (1 found)
0x00402b7a: ldmxcsr dword [esp+0x0C] ; xor eax, eax ; add esp, 0x1C ; ret  ;  (1 found)
0x00405945: lea eax, dword [0x00000004+eax*4] ; add esp, 0x18 ; pop ebx ; ret  ;  (1 found)
0x00402f88: lea eax, dword [edi+0x01] ; pop ebx ; pop esi ; pop edi ; pop ebp ; ret  ;  (1 found)
0x00402f3d: lea eax, dword [esi+0x01] ; pop ebx ; pop esi ; pop edi ; pop ebp ; ret  ;  (1 found)
0x0040520c: lea ebp, dword [edx+0x01] ; jmp dword [0x0040C8A4+eax*4] ;  (1 found)
0x00401329: lea edi, dword [edi+0x00000000] ; jmp dword [0x00443268] ;  (1 found)
0x00401319: lea edi, dword [edi+0x00000000] ; jmp dword [0x00443278] ;  (1 found)
0x004012f9: lea edi, dword [edi+0x00000000] ; sub esp, 0x1C ; mov dword [esp], 0x00000002 ; call dword [0x00443248] ;  (1 found)
0x004025b9: lea edi, dword [edi+0x00000000] ; xor eax, eax ; ret  ;  (1 found)
0x00402d59: lea edi, dword [edi+0x00000000] ; xor eax, eax ; ret  ;  (1 found)
0x0040156a: lea edx, dword [eax+0x01] ; mov dword [0x0040FA60], edx ; leave  ; ret  ;  (1 found)
0x004025b3: lea esi, dword [esi+0x00000000] ; lea edi, dword [edi+0x00000000] ; xor eax, eax ; ret  ;  (1 found)
0x00401049: lea esi, dword [esi+0x00000000] ; xor eax, eax ; add esp, 0x1C ; retn 0x0004 ;  (1 found)
0x00401326: lea esi, dword [esi+0x00] ; lea edi, dword [edi+0x00000000] ; jmp dword [0x00443268] ;  (1 found)
0x00401315: lea esi, dword [esi+0x00] ; lea edi, dword [edi+0x00000000] ; jmp dword [0x00443278] ;  (1 found)
0x004012f5: lea esi, dword [esi+0x00] ; lea edi, dword [edi+0x00000000] ; sub esp, 0x1C ; mov dword [esp], 0x00000002 ; call dword [0x00443248] ;  (1 found)
0x00402d56: lea esi, dword [esi+0x00] ; lea edi, dword [edi+0x00000000] ; xor eax, eax ; ret  ;  (1 found)
0x00402cdd: lea esi, dword [esi+0x00] ; mov edx, 0x00000001 ; mov eax, edx ; pop ebx ; pop esi ; ret  ;  (1 found)
0x00401406: lea esp, dword [ebp-0x08] ; pop ebx ; pop esi ; pop ebp ; ret  ;  (1 found)
0x00401b66: lea esp, dword [ebp-0x0C] ; pop ebx ; pop esi ; pop edi ; pop ebp ; ret  ;  (1 found)
0x00402295: lea esp, dword [ebp-0x0C] ; pop ebx ; pop esi ; pop edi ; pop ebp ; ret  ;  (1 found)
0x004020c2: lea esp, dword [ebp-0x0C] ; pop ebx ; pop esi ; pop edi ; pop ebp ; ret  ;  (1 found)
0x00403666: lea esp, dword [ebp-0x0C] ; pop ebx ; pop esi ; pop edi ; pop ebp ; ret  ;  (1 found)
0x00405cc9: lea esp, dword [ebp-0x0C] ; pop ebx ; pop esi ; pop edi ; pop ebp ; ret  ;  (1 found)
0x00405837: lea esp, dword [ebp-0x0C] ; pop ebx ; pop esi ; pop edi ; pop ebp ; ret  ;  (1 found)
0x00406c54: lea esp, dword [ebp-0x0C] ; pop ebx ; pop esi ; pop edi ; pop ebp ; ret  ;  (1 found)
0x004073b8: lea esp, dword [ebp-0x0C] ; pop ebx ; pop esi ; pop edi ; pop ebp ; ret  ;  (1 found)
0x00407e3d: lea esp, dword [esi-0x70] ; add esp, 0x34 ; xor eax, eax ; pop ebx ; pop esi ; ret  ;  (1 found)
0x00409b35: leave  ; add eax, ecx ; pop ebx ; ret  ;  (1 found)
0x00406eea: leave  ; inc eax ; add byte [ecx+0x0107E283], bl ; retn 0xFAC1 ;  (1 found)
0x004072ae: leave  ; inc eax ; add byte [ecx+0x0107E283], bl ; retn 0xFAC1 ;  (1 found)
0x0040590d: leave  ; inc eax ; add byte [ecx-0x17FBDBBC], cl ; call dword [eax+0x00] ;  (1 found)
0x0040145c: leave  ; ret  ;  (1 found)
0x004014ad: leave  ; ret  ;  (1 found)
0x004015c6: leave  ; ret  ;  (1 found)
0x00401631: leave  ; ret  ;  (1 found)
0x00401573: leave  ; ret  ;  (1 found)
0x004016d1: leave  ; ret  ;  (1 found)
0x00401739: leave  ; ret  ;  (1 found)
0x00401e67: leave  ; ret  ;  (1 found)
0x00401f2b: leave  ; ret  ;  (1 found)
0x00406402: les eax,  [eax+0x5B] ; pop esi ; pop edi ; ret  ;  (1 found)
0x0040643d: les eax,  [eax+0x5B] ; pop esi ; pop edi ; ret  ;  (1 found)
0x00406256: les eax,  [ebx+ebx*2+0x5E] ; ret  ;  (1 found)
0x0040622b: les eax,  [ebx+ebx*2+0x5E] ; ret  ;  (1 found)
0x00406327: les eax,  [ebx+ebx*2+0x5E] ; ret  ;  (1 found)
0x004062f7: les eax,  [ebx+ebx*2+0x5E] ; ret  ;  (1 found)
0x004052b9: les eax,  [ebx+ebx*2] ; pop esi ; pop edi ; pop ebp ; ret  ;  (1 found)
0x00405225: les eax,  [ebx+ebx*2] ; pop esi ; pop edi ; pop ebp ; ret  ;  (1 found)
0x004059b1: les ebp,  [eax] ; pop ebx ; ret  ;  (1 found)
0x004059c2: les ebp,  [eax] ; pop ebx ; ret  ;  (1 found)
0x004054fb: les ebp,  [eax] ; pop ebx ; ret  ;  (1 found)
0x00405520: les ebp,  [eax] ; pop ebx ; ret  ;  (1 found)
0x004030d7: les ebp,  [ebx+ebx*2] ; pop esi ; pop edi ; pop ebp ; ret  ;  (1 found)
0x00403129: les ebp,  [ebx+ebx*2] ; pop esi ; pop edi ; pop ebp ; ret  ;  (1 found)
0x0040619b: les ebp,  [ebx+ebx*2] ; pop esi ; pop edi ; pop ebp ; ret  ;  (1 found)
0x0040a0f5: les ebp,  [ecx+ecx*4] ; fcomp dword [ebx+0x5E] ; pop edi ; pop ebp ; ret  ;  (1 found)
0x00409b6b: les ebx,  [eax] ; add eax, 0x04 ; pop ebx ; ret  ;  (1 found)
0x00405952: les ebx,  [eax] ; mov eax, 0x00000004 ; pop ebx ; ret  ;  (1 found)
0x0040249c: les ebx,  [eax] ; pop ebx ; ret  ;  (1 found)
0x0040510d: les ebx,  [eax] ; pop ebx ; ret  ;  (1 found)
0x004050bc: les ebx,  [eax] ; pop ebx ; ret  ;  (1 found)
0x00405134: les ebx,  [eax] ; pop ebx ; ret  ;  (1 found)
0x0040594d: les ebx,  [eax] ; pop ebx ; ret  ;  (1 found)
0x0040597d: les ebx,  [eax] ; pop ebx ; ret  ;  (1 found)
0x00409e4f: les ebx,  [eax] ; pop ebx ; ret  ;  (1 found)
0x00409eb8: les ebx,  [eax] ; pop ebx ; ret  ;  (1 found)
0x0040a036: les ebx,  [eax] ; pop ebx ; ret  ;  (1 found)
0x0040a060: les ebx,  [eax] ; pop ebx ; ret  ;  (1 found)
0x004026d2: les ebx,  [eax] ; xor eax, eax ; pop ebx ; ret  ;  (1 found)
0x00402720: les ebx,  [eax] ; xor eax, eax ; pop ebx ; ret  ;  (1 found)
0x00406900: les ebx,  [ebx+ebx*2+0x5E] ; pop edi ; pop ebp ; ret  ;  (1 found)
0x00405776: les ebx,  [ebx+ebx*2] ; pop esi ; pop edi ; pop ebp ; ret  ;  (1 found)
0x00405fac: les ebx,  [ebx+ebx*2] ; pop esi ; pop edi ; pop ebp ; ret  ;  (1 found)
0x0040ae26: les ebx,  [ebx+ebx*2] ; pop esi ; pop edi ; pop ebp ; ret  ;  (1 found)
0x0040a99e: les ebx,  [ebx+ebx*2] ; pop esi ; pop edi ; pop ebp ; ret  ;  (1 found)
0x0040a955: les ebx,  [ebx+ebx*2] ; pop esi ; pop edi ; pop ebp ; ret  ;  (1 found)
0x0040ac31: les ebx,  [ebx+ebx*2] ; pop esi ; pop edi ; pop ebp ; ret  ;  (1 found)
0x0040acab: les ebx,  [ebx+ebx*2] ; pop esi ; pop edi ; pop ebp ; ret  ;  (1 found)
0x0040accf: les ebx,  [ebx+ebx*2] ; pop esi ; pop edi ; pop ebp ; ret  ;  (1 found)
0x0040acbb: les ebx,  [ebx+ebx*2] ; pop esi ; pop edi ; pop ebp ; ret  ;  (1 found)
0x0040ad64: les ebx,  [ebx+ebx*2] ; pop esi ; pop edi ; pop ebp ; ret  ;  (1 found)
0x0040ad39: les ebx,  [ebx+ebx*2] ; pop esi ; pop edi ; pop ebp ; ret  ;  (1 found)
0x0040ad95: les ebx,  [ebx+ebx*2] ; pop esi ; pop edi ; pop ebp ; ret  ;  (1 found)
0x00405456: les ecx,  [eax+0x5B] ; ret  ;  (1 found)
0x004084e5: les ecx,  [eax+eax+0x5E5B0000] ; pop edi ; pop ebp ; ret  ;  (1 found)
0x0040851d: les ecx,  [eax+eax+0x5E5B0000] ; pop edi ; pop ebp ; ret  ;  (1 found)
0x0040855d: les ecx,  [eax+eax+0x5E5B0000] ; pop edi ; pop ebp ; ret  ;  (1 found)
0x00408ab9: les ecx,  [eax+eax+0x5E5B0000] ; pop edi ; pop ebp ; ret  ;  (1 found)
0x00405073: les ecx,  [eax] ; pop ebx ; ret  ;  (1 found)
0x004020c0: les ecx,  [ebp+0x5E5BF465] ; pop edi ; pop ebp ; ret  ;  (1 found)
0x004020c1: les ecx,  [ebp+0x5E5BF465] ; pop edi ; pop ebp ; ret  ;  (1 found)
0x0040289f: les ecx,  [ebx+ebx*2+0x5E] ; pop edi ; pop ebp ; ret  ;  (1 found)
0x00402921: les ecx,  [ebx+ebx*2+0x5E] ; pop edi ; pop ebp ; ret  ;  (1 found)
0x004055fa: les ecx,  [ebx+ebx*2+0x5E] ; pop edi ; pop ebp ; ret  ;  (1 found)
0x0040a2f1: les ecx,  [ebx+ebx*2+0x5E] ; pop edi ; pop ebp ; ret  ;  (1 found)
0x00409e04: les ecx,  [ebx+ebx*2+0x5E] ; pop edi ; pop ebp ; ret  ;  (1 found)
0x004056da: les ecx,  [ebx+ebx*2] ; pop esi ; pop edi ; pop ebp ; ret  ;  (1 found)
0x00402468: les ecx,  [ebx+esi*8] ; ret  ;  (1 found)
0x00407fff: les ecx,  [ecx+ecx*4-0x18] ; pop ebx ; pop esi ; pop edi ; pop ebp ; ret  ;  (1 found)
0x00402f3b: les edi,  [0x5E5B0146+ecx*4] ; pop edi ; pop ebp ; ret  ;  (1 found)
0x00402f86: les edi,  [0x5E5B0147+ecx*4] ; pop edi ; pop ebp ; ret  ;  (1 found)
0x0040810a: les edi,  [eax] ; pop ebx ; ret  ;  (1 found)
0x004012dc: les edi,  [ebx+eax*8] ; nop  ; sub esp, 0x1C ; mov dword [esp], 0x00000001 ; call dword [0x00443248] ;  (1 found)
0x0040a55b: les edi,  [ebx+ebx*2] ; pop esi ; pop edi ; pop ebp ; ret  ;  (1 found)
0x0040a7ab: les edi,  [ebx+ebx*2] ; pop esi ; pop edi ; pop ebp ; ret  ;  (1 found)
0x0040a74f: les edi,  [ebx+ebx*2] ; pop esi ; pop edi ; pop ebp ; ret  ;  (1 found)
0x00402ee5: les edi,  [ecx+esi] ; rcr byte [ebx+0x5E], 0x0000005F ; pop ebp ; ret  ;  (1 found)
0x00402557: les edx,  [eax+edi*4] ; add dword [eax], eax ; add byte [eax], al ; pop ebx ; pop esi ; retn 0x000C ;  (1 found)
0x00402589: les edx,  [eax+edi*4] ; add dword [eax], eax ; add byte [eax], al ; pop ebx ; pop esi ; retn 0x000C ;  (1 found)
0x004032a1: les edx,  [eax] ; mov eax, 0x00000001 ; pop ebx ; pop esi ; pop edi ; ret  ;  (1 found)
0x00409be7: les edx,  [eax] ; mov eax, edi ; pop ebx ; pop esi ; pop edi ; ret  ;  (1 found)
0x00409aa3: les edx,  [eax] ; pop ebx ; pop esi ; pop edi ; pop ebp ; ret  ;  (1 found)
0x00409add: les edx,  [eax] ; pop ebx ; pop esi ; pop edi ; pop ebp ; ret  ;  (1 found)
0x00403c93: les edx,  [eax] ; pop ebx ; pop esi ; pop edi ; ret  ;  (1 found)
0x004058f8: les edx,  [eax] ; pop ebx ; ret  ;  (1 found)
0x00403298: les edx,  [eax] ; xor eax, eax ; pop ebx ; pop esi ; pop edi ; ret  ;  (1 found)
0x0040a827: les edx,  [ebx+ebx*2] ; pop esi ; pop edi ; pop ebp ; ret  ;  (1 found)
0x0040a89c: les edx,  [ebx+ebx*2] ; pop esi ; pop edi ; pop ebp ; ret  ;  (1 found)
0x0040262b: les edx,  [ebx+ebx*2] ; pop esi ; ret  ;  (1 found)
0x004026a6: les edx,  [ebx+ebx*2] ; pop esi ; ret  ;  (1 found)
0x00402d51: les edx,  [ebx+ebx*2] ; pop esi ; ret  ;  (1 found)
0x004032e6: les edx,  [ebx+ebx*2] ; pop esi ; ret  ;  (1 found)
0x004051dc: les edx,  [ebx+ebx*2] ; pop esi ; ret  ;  (1 found)
0x004051c5: les edx,  [ebx+ebx*2] ; pop esi ; ret  ;  (1 found)
0x00402641: les edx,  [ecx+ecx*4] ; pop ebx ; pop esi ; ret  ;  (1 found)
0x00407d98: les esi,  [eax+edi*4] ; add al, byte [eax] ; add byte [eax], al ; pop ebx ; pop esi ; ret  ;  (1 found)
0x00407db5: les esi,  [eax+edi*4] ; add dword [eax], eax ; add byte [eax], al ; pop ebx ; pop esi ; ret  ;  (1 found)
0x00407dcc: les esi,  [ebx+ebx*2] ; pop esi ; ret  ;  (1 found)
0x00407eff: les esi,  [ebx+ebx*2] ; pop esi ; ret  ;  (1 found)
0x0040aa2a: les esi,  [edx] ; inc esp ; add byte [eax-0x3FDA0070], dl ; xor al, byte [eax+eax-0x70] ; nop  ; jmp dword [0x004432BC] ;  (1 found)
0x00402a51: les esp,  [eax] ; pop ebx ; pop esi ; pop edi ; ret  ;  (1 found)
0x00408228: les esp,  [eax] ; pop ebx ; pop esi ; pop edi ; ret  ;  (1 found)
0x00409fbd: les esp,  [eax] ; pop ebx ; pop esi ; pop edi ; ret  ;  (1 found)
0x00402c23: les esp,  [ebx+ebx*2] ; pop esi ; ret  ;  (1 found)
0x00402c55: les esp,  [ebx+ebx*2] ; pop esi ; ret  ;  (1 found)
0x00405304: les esp,  [ecx+ecx*4] ; fcomp dword [ebx+0x5E] ; ret  ;  (1 found)
0x0040ab7a: lock xor dword [eax+eax-0x70], eax ; nop  ; jmp dword [0x004431EC] ;  (1 found)
0x0040aa5a: lodsb  ; xor al, byte [eax+eax-0x70] ; nop  ; jmp dword [0x004432A8] ;  (1 found)
0x0040104a: mov ah, 0x26 ; add byte [eax], al ; add byte [eax], al ; xor eax, eax ; add esp, 0x1C ; retn 0x0004 ;  (1 found)
0x0040aa4a: mov ah, 0x32 ; inc esp ; add byte [eax-0x4FDA0070], dl ; xor al, byte [eax+eax-0x70] ; nop  ; jmp dword [0x004432AC] ;  (1 found)
0x00403536: mov ah, 0x83 ; retn 0x8901 ;  (1 found)
0x0040aa52: mov al, 0x32 ; inc esp ; add byte [eax-0x53DA0070], dl ; xor al, byte [eax+eax-0x70] ; nop  ; jmp dword [0x004432A8] ;  (1 found)
0x0040420f: mov al, 0x40 ; add byte [ebp+0x3FBEF465], cl ; add byte [eax], al ; add byte [ecx+0x5F5E5BF0], cl ; pop ebp ; ret  ;  (1 found)
0x00402460: mov al, 0x40 ; add byte [ebp-0x7C168A40], al ; les ecx,  [ebx+esi*8] ; ret  ;  (1 found)
0x00402442: mov al, 0x40 ; add byte [ebx+0x74C08500], cl ; pop ds ; sub esp, 0x0C ; nop  ; call eax ;  (1 found)
0x0040a325: mov al, byte [0x850040F0] ; dec dword [edi] ; test ah, cl ; add byte [eax], al ; add dh, dh ; ret  ;  (1 found)
0x0040aa72: mov al, byte [0x90004432] ; nop  ; jmp dword [0x0044329C] ;  (1 found)
0x00406709: mov al, dh ; add al, byte [eax] ; add byte [edi], cl ; movsb  ; retn 0x0101 ;  (1 found)
0x00405200: mov bh, 0x3C ; xor dword [edi], ecx ; xchg dword [ecx+0x0F000000], ebp ; mov dh, 0xC0 ; lea ebp, dword [edx+0x01] ; jmp dword [0x0040C8A4+eax*4] ;  (1 found)
0x00402938: mov byte [eax+0x00], 0xFFFFFFE8 ; sar dh, 0xFFFFFFFF ; jmp dword [ecx+0x0040F05C] ;  (1 found)
0x00405e2d: mov byte [ecx-0x74FFFFFF], al ; push edi ; or al, 0x39 ; retn 0x8D0F ;  (1 found)
0x00402ede: mov byte [ecx], 0xFFFFFF84 ; sal byte [ebp-0x12], 0xFFFFFF83 ; les edi,  [ecx+esi] ; rcr byte [ebx+0x5E], 0x0000005F ; pop ebp ; ret  ;  (1 found)
0x0040813e: mov byte [ecx], al ; mov eax, 0x00000001 ; add esp, 0x4C ; ret  ;  (1 found)
0x0040aaa2: mov byte [edx], dh ; inc esp ; add byte [eax-0x7BDA0070], dl ; xor al, byte [eax+eax-0x70] ; nop  ; jmp dword [0x00443280] ;  (1 found)
0x00402c1e: mov byte [esi+edx], 0x00000000 ; add esp, 0x24 ; pop ebx ; pop esi ; ret  ;  (1 found)
0x00407b7b: mov cl, ch ; retn 0xFFF8 ;  (1 found)
0x004058c5: mov dh, 0x00 ; add byte [eax], al ; add byte [ebp+0x000000BF], cl ; add byte [ebx-0x77], dl ; ret  ;  (1 found)
0x004025b4: mov dh, 0x00 ; add byte [eax], al ; add byte [ebp+0x000027BC], cl ; add byte [eax], al ; xor eax, eax ; ret  ;  (1 found)
0x00409f16: mov dh, 0x0C ; add byte [eax], al ; sub esp, 0x04 ; add esp, 0x1C ; ret  ;  (1 found)
0x00406b19: mov dh, 0x45 ; in al, 0x83 ; ret  ;  (1 found)
0x00407376: mov dh, 0xC0 ; jmp dword [0x0040C9C0+eax*4] ;  (1 found)
0x0040520a: mov dh, 0xC0 ; lea ebp, dword [edx+0x01] ; jmp dword [0x0040C8A4+eax*4] ;  (1 found)
0x00401099: mov dh, 0xC7 ; add al, 0x24 ; or byte [eax], al ; add byte [eax], al ; call eax ;  (1 found)
0x004025b2: mov dword [0x0000B68D], eax ; add byte [eax], al ; lea edi, dword [edi+0x00000000] ; xor eax, eax ; ret  ;  (1 found)
0x00402b93: mov dword [0x0040B014], 0xFFFFFFFE ; call dword [0x00443258] ;  (1 found)
0x004027bc: mov dword [0x0040F040], 0x00000001 ; mov eax, 0x00000001 ; add esp, 0x1C ; ret  ;  (1 found)
0x004016cb: mov dword [0x0040FA60], eax ; nop  ; leave  ; ret  ;  (1 found)
0x0040156d: mov dword [0x0040FA60], edx ; leave  ; ret  ;  (1 found)
0x00403c8d: mov dword [eax+0x00], 0xC4830E74 ; adc byte [ebx+0x5E], bl ; pop edi ; ret  ;  (1 found)
0x00402b03: mov dword [eax+0x00], 0xFFFCF5E8 ; call dword [eax-0x6F6F6F70] ;  (1 found)
0x00409fb5: mov dword [eax+0x0C], 0x00000000 ; add esp, 0x20 ; pop ebx ; pop esi ; pop edi ; ret  ;  (1 found)
0x0040a177: mov dword [eax+0x10], 0x00000001 ; mov dword [eax+0x14], edx ; add esp, 0x1C ; ret  ;  (1 found)
0x0040a17e: mov dword [eax+0x14], edx ; add esp, 0x1C ; ret  ;  (1 found)
0x00404e61: mov dword [eax], 0x00000002 ; add esp, 0x00000154 ; mov eax, esi ; pop ebx ; pop esi ; ret  ;  (1 found)
0x00405106: mov dword [eax], 0x00000009 ; add esp, 0x18 ; pop ebx ; ret  ;  (1 found)
0x004051d5: mov dword [eax], 0x00000016 ; add esp, 0x14 ; pop ebx ; pop esi ; ret  ;  (1 found)
0x004081ac: mov dword [eax], 0x0000002A ; mov eax, 0xFFFFFFFF ; add esp, 0x4C ; ret  ;  (1 found)
0x00409b68: mov dword [eax], ebx ; add esp, 0x18 ; add eax, 0x04 ; pop ebx ; ret  ;  (1 found)
0x00407dc7: mov dword [eax], edx ; xor eax, eax ; add esp, 0x34 ; pop ebx ; pop esi ; ret  ;  (1 found)
0x00405129: mov dword [ebx+0x00000114], 0x00000000 ; add esp, 0x18 ; pop ebx ; ret  ;  (1 found)
0x00404d5c: mov dword [ebx+0x08], 0x00000018 ; add esp, 0x00000154 ; mov eax, esi ; pop ebx ; pop esi ; ret  ;  (1 found)
0x00404e40: mov dword [ebx+0x08], 0x00000018 ; add esp, 0x00000154 ; mov eax, esi ; pop ebx ; pop esi ; ret  ;  (1 found)
0x00404d70: mov dword [ebx+0x08], eax ; add esp, 0x00000154 ; mov eax, esi ; pop ebx ; pop esi ; ret  ;  (1 found)
0x00404e2b: mov dword [ebx+0x08], eax ; add esp, 0x00000154 ; mov eax, esi ; pop ebx ; pop esi ; ret  ;  (1 found)
0x00401e7a: mov dword [ebx], eax ; ret  ;  (1 found)
0x004058f5: mov dword [ebx], ecx ; add esp, 0x10 ; pop ebx ; ret  ;  (1 found)
0x0040551c: mov dword [edx+0x18], ecx ; add esp, 0x28 ; pop ebx ; ret  ;  (1 found)
0x004054f7: mov dword [edx+0x18], ecx ; add esp, 0x28 ; pop ebx ; ret  ;  (1 found)
0x00407db2: mov dword [edx], eax ; add esp, 0x34 ; mov eax, 0x00000001 ; pop ebx ; pop esi ; ret  ;  (1 found)
0x004011c8: mov dword [esp+0x04], 0x00000002 ; mov dword [esp], 0x00000000 ; call eax ;  (1 found)
0x004013a6: mov dword [esp+0x04], 0x0040F008 ; mov dword [esp], 0x0040D0B8 ; call esi ;  (1 found)
0x00403a58: mov dword [esp+0x04], eax ; mov esi, dword [ebp-0x44] ; mov eax, dword [esi] ; mov dword [esp], eax ; call edi ;  (1 found)
0x004011c0: mov dword [esp+0x08], 0x00000000 ; mov dword [esp+0x04], 0x00000002 ; mov dword [esp], 0x00000000 ; call eax ;  (1 found)
0x004011d0: mov dword [esp], 0x00000000 ; call eax ;  (1 found)
0x004012e3: mov dword [esp], 0x00000001 ; call dword [0x00443248] ;  (1 found)
0x00401303: mov dword [esp], 0x00000002 ; call dword [0x00443248] ;  (1 found)
0x0040111c: mov dword [esp], 0x00000004 ; call eax ;  (1 found)
0x0040109a: mov dword [esp], 0x00000008 ; call eax ;  (1 found)
0x00401130: mov dword [esp], 0x0000000B ; call eax ;  (1 found)
0x004013f1: mov dword [esp], 0x0040B03C ; call edx ;  (1 found)
0x0040143f: mov dword [esp], 0x0040D0B8 ; call eax ;  (1 found)
0x004013ae: mov dword [esp], 0x0040D0B8 ; call esi ;  (1 found)
0x00403a61: mov dword [esp], eax ; call edi ;  (1 found)
0x0040260f: mov dword [esp], esi ; call eax ;  (1 found)
0x00401f26: mov eax, 0x00000000 ; leave  ; ret  ;  (1 found)
0x00401e5f: mov eax, 0x00000000 ; mov ebx, dword [ebp-0x04] ; leave  ; ret  ;  (1 found)
0x004027c6: mov eax, 0x00000001 ; add esp, 0x1C ; ret  ;  (1 found)
0x0040277c: mov eax, 0x00000001 ; add esp, 0x1C ; ret  ;  (1 found)
0x0040277b: mov eax, 0x00000001 ; add esp, 0x1C ; ret  ;  (1 found)
0x00402518: mov eax, 0x00000001 ; add esp, 0x1C ; retn 0x000C ;  (1 found)
0x004024f0: mov eax, 0x00000001 ; add esp, 0x1C ; retn 0x000C ;  (1 found)
0x00408140: mov eax, 0x00000001 ; add esp, 0x4C ; ret  ;  (1 found)
0x004032a3: mov eax, 0x00000001 ; pop ebx ; pop esi ; pop edi ; ret  ;  (1 found)
0x00407db7: mov eax, 0x00000001 ; pop ebx ; pop esi ; ret  ;  (1 found)
0x00402559: mov eax, 0x00000001 ; pop ebx ; pop esi ; retn 0x000C ;  (1 found)
0x0040258b: mov eax, 0x00000001 ; pop ebx ; pop esi ; retn 0x000C ;  (1 found)
0x00407d9a: mov eax, 0x00000002 ; pop ebx ; pop esi ; ret  ;  (1 found)
0x00405248: mov eax, 0x00000003 ; pop ebx ; pop esi ; pop edi ; pop ebp ; ret  ;  (1 found)
0x00405954: mov eax, 0x00000004 ; pop ebx ; ret  ;  (1 found)
0x00405977: mov eax, 0x00000008 ; add esp, 0x18 ; pop ebx ; ret  ;  (1 found)
0x00405285: mov eax, 0x0000004C ; pop ebx ; pop esi ; pop edi ; pop ebp ; ret  ;  (1 found)
0x0040aa42: mov eax, 0x90004432 ; nop  ; jmp dword [0x004432B4] ;  (1 found)
0x004081b2: mov eax, 0xFFFFFFFF ; add esp, 0x4C ; ret  ;  (1 found)
0x00405840: mov eax, 0xFFFFFFFF ; ret  ;  (1 found)
0x0040185b: mov eax, dword [0x0040C29C+eax*4] ; jmp eax ;  (1 found)
0x00401565: mov eax, dword [0x0040FA60] ; lea edx, dword [eax+0x01] ; mov dword [0x0040FA60], edx ; leave  ; ret  ;  (1 found)
0x004016c3: mov eax, dword [0x0040FA60] ; sub eax, 0x01 ; mov dword [0x0040FA60], eax ; nop  ; leave  ; ret  ;  (1 found)
0x0040602b: mov eax, dword [0x83FFFFF4] ; ret  ;  (1 found)
0x0040514b: mov eax, dword [eax+0x00000114] ; add esp, 0x0C ; ret  ;  (1 found)
0x00401e6c: mov eax, dword [eax] ; add ecx, 0x05 ; pop edx ; ret  ;  (1 found)
0x00403a56: mov eax, dword [eax] ; mov dword [esp+0x04], eax ; mov esi, dword [ebp-0x44] ; mov eax, dword [esi] ; mov dword [esp], eax ; call edi ;  (1 found)
0x0040260c: mov eax, dword [ebx+0x04] ; mov dword [esp], esi ; call eax ;  (1 found)
0x00403a5f: mov eax, dword [esi] ; mov dword [esp], eax ; call edi ;  (1 found)
0x00408001: mov eax, ebp ; pop ebx ; pop esi ; pop edi ; pop ebp ; ret  ;  (1 found)
0x0040830f: mov eax, ebp ; pop ebx ; pop esi ; pop edi ; pop ebp ; ret  ;  (1 found)
0x00408332: mov eax, ebp ; pop ebx ; pop esi ; pop edi ; pop ebp ; ret  ;  (1 found)
0x004082fb: mov eax, ebp ; pop ebx ; pop esi ; pop edi ; pop ebp ; ret  ;  (1 found)
0x0040a3da: mov eax, ebp ; pop ebx ; pop esi ; pop edi ; pop ebp ; ret  ;  (1 found)
0x0040a374: mov eax, ebp ; pop ebx ; pop esi ; pop edi ; pop ebp ; ret  ;  (1 found)
0x00408016: mov eax, ebp ; pop esi ; pop edi ; pop ebp ; ret  ;  (1 found)
0x00408396: mov eax, ebp ; pop esi ; pop edi ; pop ebp ; ret  ;  (1 found)
0x00405070: mov eax, ebx ; add esp, 0x08 ; pop ebx ; ret  ;  (1 found)
0x0040a0f7: mov eax, ebx ; pop ebx ; pop esi ; pop edi ; pop ebp ; ret  ;  (1 found)
0x00405306: mov eax, ebx ; pop ebx ; pop esi ; ret  ;  (1 found)
0x00403bdc: mov eax, ecx ; pop ebx ; pop esi ; pop edi ; pop ebp ; ret  ;  (1 found)
0x00409be9: mov eax, edi ; pop ebx ; pop esi ; pop edi ; ret  ;  (1 found)
0x00402cb0: mov eax, edx ; pop ebx ; pop esi ; ret  ;  (1 found)
0x00402ce5: mov eax, edx ; pop ebx ; pop esi ; ret  ;  (1 found)
0x004058a8: mov eax, edx ; pop ebx ; pop esi ; ret  ;  (1 found)
0x00402cec: mov eax, edx ; ret  ;  (1 found)
0x004026a3: mov eax, esi ; add esp, 0x14 ; pop ebx ; pop esi ; ret  ;  (1 found)
0x00404c0e: mov eax, esi ; pop ebx ; pop esi ; pop edi ; pop ebp ; ret  ;  (1 found)
0x0040421a: mov eax, esi ; pop ebx ; pop esi ; pop edi ; pop ebp ; ret  ;  (1 found)
0x004041da: mov eax, esi ; pop ebx ; pop esi ; pop edi ; pop ebp ; ret  ;  (1 found)
0x00403dc2: mov eax, esi ; pop ebx ; pop esi ; pop edi ; pop ebp ; ret  ;  (1 found)
0x004040b0: mov eax, esi ; pop ebx ; pop esi ; pop edi ; pop ebp ; ret  ;  (1 found)
0x00404fd7: mov eax, esi ; pop ebx ; pop esi ; pop edi ; pop ebp ; ret  ;  (1 found)
0x00402643: mov eax, esi ; pop ebx ; pop esi ; ret  ;  (1 found)
0x00404e34: mov eax, esi ; pop ebx ; pop esi ; ret  ;  (1 found)
0x00404d79: mov eax, esi ; pop ebx ; pop esi ; ret  ;  (1 found)
0x00404d69: mov eax, esi ; pop ebx ; pop esi ; ret  ;  (1 found)
0x00404e4d: mov eax, esi ; pop ebx ; pop esi ; ret  ;  (1 found)
0x00404e6d: mov eax, esi ; pop ebx ; pop esi ; ret  ;  (1 found)
0x004049bb: mov eax, esi ; pop esi ; pop edi ; pop ebp ; ret  ;  (1 found)
0x00401e64: mov ebx, dword [ebp-0x04] ; leave  ; ret  ;  (1 found)
0x00401e73: mov ebx, eax ; ret  ;  (1 found)
0x00405516: mov ecx, dword [edx+0x18] ; add ecx, 0x01 ; mov dword [edx+0x18], ecx ; add esp, 0x28 ; pop ebx ; ret  ;  (1 found)
0x004054f1: mov ecx, dword [edx+0x18] ; add ecx, 0x01 ; mov dword [edx+0x18], ecx ; add esp, 0x28 ; pop ebx ; ret  ;  (1 found)
0x0040813a: mov ecx, dword [esp+0x50] ; mov byte [ecx], al ; mov eax, 0x00000001 ; add esp, 0x4C ; ret  ;  (1 found)
0x00409adb: mov edi, 0x5B10C483 ; pop esi ; pop edi ; pop ebp ; ret  ;  (1 found)
0x00402ce0: mov edx, 0x00000001 ; mov eax, edx ; pop ebx ; pop esi ; ret  ;  (1 found)
0x0040a173: mov edx, dword [esp+0x20] ; mov dword [eax+0x10], 0x00000001 ; mov dword [eax+0x14], edx ; add esp, 0x1C ; ret  ;  (1 found)
0x00401b62: mov es, word [eax] ; add byte [eax+0x5BF4658D], dl ; pop esi ; pop edi ; pop ebp ; ret  ;  (1 found)
0x00403a5c: mov esi, dword [ebp-0x44] ; mov eax, dword [esi] ; mov dword [esp], eax ; call edi ;  (1 found)
0x0040131a: mov esp, 0x00000027 ; add bh, bh ; and eax, 0x00443278 ; lea esi, dword [esi+0x00] ; lea edi, dword [edi+0x00000000] ; jmp dword [0x00443268] ;  (1 found)
0x004082ba: mov esp, 0x00000027 ; add byte [ecx], al ; ret  ;  (1 found)
0x00409b34: mov esp, 0x5BC801C9 ; ret  ;  (1 found)
0x00403978: mov esp, 0x8304408B ; ret  ;  (1 found)
0x0040aa3a: mov esp, 0x90004432 ; nop  ; jmp dword [0x004432B8] ;  (1 found)
0x00407dc6: mov word [eax], dx ; xor eax, eax ; add esp, 0x34 ; pop ebx ; pop esi ; ret  ;  (1 found)
0x00407db1: mov word [edx], ax ; add esp, 0x34 ; mov eax, 0x00000001 ; pop ebx ; pop esi ; ret  ;  (1 found)
0x0040aa9a: mov word [edx], seg? ; inc esp ; add byte [eax-0x77DA0070], dl ; xor al, byte [eax+eax-0x70] ; nop  ; jmp dword [0x00443284] ;  (1 found)
0x004072a9: mov word [esp+0x2D], seg? ; insb  ; leave  ; inc eax ; add byte [ecx+0x0107E283], bl ; retn 0xFAC1 ;  (1 found)
0x0040670f: movsb  ; retn 0x0101 ;  (1 found)
0x0040aa6a: movsb  ; xor al, byte [eax+eax-0x70] ; nop  ; jmp dword [0x004432A0] ;  (1 found)
0x004066e8: movsd  ; retn 0xE0D3 ;  (1 found)
0x00407375: movzx eax, al ; jmp dword [0x0040C9C0+eax*4] ;  (1 found)
0x00405209: movzx eax, al ; lea ebp, dword [edx+0x01] ; jmp dword [0x0040C8A4+eax*4] ;  (1 found)
0x00407e3e: nop  ; add esp, 0x34 ; xor eax, eax ; pop ebx ; pop esi ; ret  ;  (1 found)
0x00407e3f: nop  ; add esp, 0x34 ; xor eax, eax ; pop ebx ; pop esi ; ret  ;  (1 found)
0x0040244e: nop  ; call eax ;  (1 found)
0x0040244f: nop  ; call eax ;  (1 found)
0x0040abcf: nop  ; jmp dword [0x004431C4] ;  (1 found)
0x0040abc7: nop  ; jmp dword [0x004431C8] ;  (1 found)
0x0040abbf: nop  ; jmp dword [0x004431CC] ;  (1 found)
0x0040abb7: nop  ; jmp dword [0x004431D0] ;  (1 found)
0x0040abaf: nop  ; jmp dword [0x004431D4] ;  (1 found)
0x0040aba7: nop  ; jmp dword [0x004431D8] ;  (1 found)
0x0040ab9f: nop  ; jmp dword [0x004431DC] ;  (1 found)
0x0040ab97: nop  ; jmp dword [0x004431E0] ;  (1 found)
0x0040ab8f: nop  ; jmp dword [0x004431E4] ;  (1 found)
0x0040ab87: nop  ; jmp dword [0x004431E8] ;  (1 found)
0x0040ab7f: nop  ; jmp dword [0x004431EC] ;  (1 found)
0x0040ab77: nop  ; jmp dword [0x004431F0] ;  (1 found)
0x0040ab6f: nop  ; jmp dword [0x004431F4] ;  (1 found)
0x0040ab67: nop  ; jmp dword [0x004431F8] ;  (1 found)
0x0040ab5f: nop  ; jmp dword [0x004431FC] ;  (1 found)
0x0040ab57: nop  ; jmp dword [0x00443200] ;  (1 found)
0x0040ab4f: nop  ; jmp dword [0x00443204] ;  (1 found)
0x0040ab47: nop  ; jmp dword [0x00443208] ;  (1 found)
0x0040ab3f: nop  ; jmp dword [0x0044320C] ;  (1 found)
0x0040ab37: nop  ; jmp dword [0x00443210] ;  (1 found)
0x0040ab2f: nop  ; jmp dword [0x00443214] ;  (1 found)
0x0040ab27: nop  ; jmp dword [0x00443218] ;  (1 found)
0x0040ab1f: nop  ; jmp dword [0x0044321C] ;  (1 found)
0x0040ab17: nop  ; jmp dword [0x00443220] ;  (1 found)
0x0040ab0f: nop  ; jmp dword [0x00443224] ;  (1 found)
0x0040ae57: nop  ; jmp dword [0x0044322C] ;  (1 found)
0x0040ae4f: nop  ; jmp dword [0x00443230] ;  (1 found)
0x0040ab07: nop  ; jmp dword [0x00443238] ;  (1 found)
0x0040aaff: nop  ; jmp dword [0x00443240] ;  (1 found)
0x0040aaf7: nop  ; jmp dword [0x00443244] ;  (1 found)
0x0040aaef: nop  ; jmp dword [0x0044324C] ;  (1 found)
0x0040aae7: nop  ; jmp dword [0x00443250] ;  (1 found)
0x0040aadf: nop  ; jmp dword [0x00443254] ;  (1 found)
0x0040aad7: nop  ; jmp dword [0x0044325C] ;  (1 found)
0x0040aacf: nop  ; jmp dword [0x00443264] ;  (1 found)
0x0040aac7: nop  ; jmp dword [0x00443270] ;  (1 found)
0x0040aabf: nop  ; jmp dword [0x00443274] ;  (1 found)
0x0040aab7: nop  ; jmp dword [0x0044327C] ;  (1 found)
0x0040aaaf: nop  ; jmp dword [0x00443280] ;  (1 found)
0x0040aaa7: nop  ; jmp dword [0x00443284] ;  (1 found)
0x0040aa9f: nop  ; jmp dword [0x00443288] ;  (1 found)
0x0040aa97: nop  ; jmp dword [0x0044328C] ;  (1 found)
0x0040aa8f: nop  ; jmp dword [0x00443290] ;  (1 found)
0x0040aa87: nop  ; jmp dword [0x00443294] ;  (1 found)
0x0040aa7f: nop  ; jmp dword [0x00443298] ;  (1 found)
0x0040aa77: nop  ; jmp dword [0x0044329C] ;  (1 found)
0x0040aa6f: nop  ; jmp dword [0x004432A0] ;  (1 found)
0x0040aa67: nop  ; jmp dword [0x004432A4] ;  (1 found)
0x0040aa5f: nop  ; jmp dword [0x004432A8] ;  (1 found)
0x0040aa57: nop  ; jmp dword [0x004432AC] ;  (1 found)
0x0040aa4f: nop  ; jmp dword [0x004432B0] ;  (1 found)
0x0040aa47: nop  ; jmp dword [0x004432B4] ;  (1 found)
0x0040aa3f: nop  ; jmp dword [0x004432B8] ;  (1 found)
0x0040aa37: nop  ; jmp dword [0x004432BC] ;  (1 found)
0x0040aa2f: nop  ; jmp dword [0x004432C0] ;  (1 found)
0x0040aa27: nop  ; jmp dword [0x004432C4] ;  (1 found)
0x0040aa1f: nop  ; jmp dword [0x004432C8] ;  (1 found)
0x0040aa17: nop  ; jmp dword [0x004432CC] ;  (1 found)
0x0040aa0f: nop  ; jmp dword [0x004432D0] ;  (1 found)
0x0040aa07: nop  ; jmp dword [0x004432D4] ;  (1 found)
0x0040a9ff: nop  ; jmp dword [0x004432D8] ;  (1 found)
0x0040a9f7: nop  ; jmp dword [0x004432DC] ;  (1 found)
0x0040a9ef: nop  ; jmp dword [0x004432E0] ;  (1 found)
0x0040a9e7: nop  ; jmp dword [0x004432E4] ;  (1 found)
0x0040a9df: nop  ; jmp dword [0x004432E8] ;  (1 found)
0x00401f87: nop  ; jmp dword [0x004432F0] ;  (1 found)
0x00401f7f: nop  ; jmp dword [0x004432F4] ;  (1 found)
0x00401f77: nop  ; jmp dword [0x004432F8] ;  (1 found)
0x00401f6f: nop  ; jmp dword [0x004432FC] ;  (1 found)
0x00401f67: nop  ; jmp dword [0x00443300] ;  (1 found)
0x00401f5f: nop  ; jmp dword [0x00443304] ;  (1 found)
0x00401f57: nop  ; jmp dword [0x00443308] ;  (1 found)
0x00401f4f: nop  ; jmp dword [0x0044330C] ;  (1 found)
0x00401f47: nop  ; jmp dword [0x00443310] ;  (1 found)
0x00401f3f: nop  ; jmp dword [0x00443314] ;  (1 found)
0x00401f37: nop  ; jmp dword [0x00443318] ;  (1 found)
0x00401f2f: nop  ; jmp dword [0x0044331C] ;  (1 found)
0x004014ac: nop  ; leave  ; ret  ;  (1 found)
0x00401630: nop  ; leave  ; ret  ;  (1 found)
0x004016d0: nop  ; leave  ; ret  ;  (1 found)
0x00401738: nop  ; leave  ; ret  ;  (1 found)
0x0040112f: nop  ; mov dword [esp], 0x0000000B ; call eax ;  (1 found)
0x0040583f: nop  ; mov eax, 0xFFFFFFFF ; ret  ;  (1 found)
0x0040abce: nop  ; nop  ; jmp dword [0x004431C4] ;  (1 found)
0x0040abc6: nop  ; nop  ; jmp dword [0x004431C8] ;  (1 found)
0x0040abbe: nop  ; nop  ; jmp dword [0x004431CC] ;  (1 found)
0x0040abb6: nop  ; nop  ; jmp dword [0x004431D0] ;  (1 found)
0x0040abae: nop  ; nop  ; jmp dword [0x004431D4] ;  (1 found)
0x0040aba6: nop  ; nop  ; jmp dword [0x004431D8] ;  (1 found)
0x0040ab9e: nop  ; nop  ; jmp dword [0x004431DC] ;  (1 found)
0x0040ab96: nop  ; nop  ; jmp dword [0x004431E0] ;  (1 found)
0x0040ab8e: nop  ; nop  ; jmp dword [0x004431E4] ;  (1 found)
0x0040ab86: nop  ; nop  ; jmp dword [0x004431E8] ;  (1 found)
0x0040ab7e: nop  ; nop  ; jmp dword [0x004431EC] ;  (1 found)
0x0040ab76: nop  ; nop  ; jmp dword [0x004431F0] ;  (1 found)
0x0040ab6e: nop  ; nop  ; jmp dword [0x004431F4] ;  (1 found)
0x0040ab66: nop  ; nop  ; jmp dword [0x004431F8] ;  (1 found)
0x0040ab5e: nop  ; nop  ; jmp dword [0x004431FC] ;  (1 found)
0x0040ab56: nop  ; nop  ; jmp dword [0x00443200] ;  (1 found)
0x0040ab4e: nop  ; nop  ; jmp dword [0x00443204] ;  (1 found)
0x0040ab46: nop  ; nop  ; jmp dword [0x00443208] ;  (1 found)
0x0040ab3e: nop  ; nop  ; jmp dword [0x0044320C] ;  (1 found)
0x0040ab36: nop  ; nop  ; jmp dword [0x00443210] ;  (1 found)
0x0040ab2e: nop  ; nop  ; jmp dword [0x00443214] ;  (1 found)
0x0040ab26: nop  ; nop  ; jmp dword [0x00443218] ;  (1 found)
0x0040ab1e: nop  ; nop  ; jmp dword [0x0044321C] ;  (1 found)
0x0040ab16: nop  ; nop  ; jmp dword [0x00443220] ;  (1 found)
0x0040ab0e: nop  ; nop  ; jmp dword [0x00443224] ;  (1 found)
0x0040ae56: nop  ; nop  ; jmp dword [0x0044322C] ;  (1 found)
0x0040ae4e: nop  ; nop  ; jmp dword [0x00443230] ;  (1 found)
0x0040ab06: nop  ; nop  ; jmp dword [0x00443238] ;  (1 found)
0x0040aafe: nop  ; nop  ; jmp dword [0x00443240] ;  (1 found)
0x0040aaf6: nop  ; nop  ; jmp dword [0x00443244] ;  (1 found)
0x0040aaee: nop  ; nop  ; jmp dword [0x0044324C] ;  (1 found)
0x0040aae6: nop  ; nop  ; jmp dword [0x00443250] ;  (1 found)
0x0040aade: nop  ; nop  ; jmp dword [0x00443254] ;  (1 found)
0x0040aad6: nop  ; nop  ; jmp dword [0x0044325C] ;  (1 found)
0x0040aace: nop  ; nop  ; jmp dword [0x00443264] ;  (1 found)
0x0040aac6: nop  ; nop  ; jmp dword [0x00443270] ;  (1 found)
0x0040aabe: nop  ; nop  ; jmp dword [0x00443274] ;  (1 found)
0x0040aab6: nop  ; nop  ; jmp dword [0x0044327C] ;  (1 found)
0x0040aaae: nop  ; nop  ; jmp dword [0x00443280] ;  (1 found)
0x0040aaa6: nop  ; nop  ; jmp dword [0x00443284] ;  (1 found)
0x0040aa9e: nop  ; nop  ; jmp dword [0x00443288] ;  (1 found)
0x0040aa96: nop  ; nop  ; jmp dword [0x0044328C] ;  (1 found)
0x0040aa8e: nop  ; nop  ; jmp dword [0x00443290] ;  (1 found)
0x0040aa86: nop  ; nop  ; jmp dword [0x00443294] ;  (1 found)
0x0040aa7e: nop  ; nop  ; jmp dword [0x00443298] ;  (1 found)
0x0040aa76: nop  ; nop  ; jmp dword [0x0044329C] ;  (1 found)
0x0040aa6e: nop  ; nop  ; jmp dword [0x004432A0] ;  (1 found)
0x0040aa66: nop  ; nop  ; jmp dword [0x004432A4] ;  (1 found)
0x0040aa5e: nop  ; nop  ; jmp dword [0x004432A8] ;  (1 found)
0x0040aa56: nop  ; nop  ; jmp dword [0x004432AC] ;  (1 found)
0x0040aa4e: nop  ; nop  ; jmp dword [0x004432B0] ;  (1 found)
0x0040aa46: nop  ; nop  ; jmp dword [0x004432B4] ;  (1 found)
0x0040aa3e: nop  ; nop  ; jmp dword [0x004432B8] ;  (1 found)
0x0040aa36: nop  ; nop  ; jmp dword [0x004432BC] ;  (1 found)
0x0040aa2e: nop  ; nop  ; jmp dword [0x004432C0] ;  (1 found)
0x0040aa26: nop  ; nop  ; jmp dword [0x004432C4] ;  (1 found)
0x0040aa1e: nop  ; nop  ; jmp dword [0x004432C8] ;  (1 found)
0x0040aa16: nop  ; nop  ; jmp dword [0x004432CC] ;  (1 found)
0x0040aa0e: nop  ; nop  ; jmp dword [0x004432D0] ;  (1 found)
0x0040aa06: nop  ; nop  ; jmp dword [0x004432D4] ;  (1 found)
0x0040a9fe: nop  ; nop  ; jmp dword [0x004432D8] ;  (1 found)
0x0040a9f6: nop  ; nop  ; jmp dword [0x004432DC] ;  (1 found)
0x0040a9ee: nop  ; nop  ; jmp dword [0x004432E0] ;  (1 found)
0x0040a9e6: nop  ; nop  ; jmp dword [0x004432E4] ;  (1 found)
0x0040a9de: nop  ; nop  ; jmp dword [0x004432E8] ;  (1 found)
0x00401f86: nop  ; nop  ; jmp dword [0x004432F0] ;  (1 found)
0x00401f7e: nop  ; nop  ; jmp dword [0x004432F4] ;  (1 found)
0x00401f76: nop  ; nop  ; jmp dword [0x004432F8] ;  (1 found)
0x00401f6e: nop  ; nop  ; jmp dword [0x004432FC] ;  (1 found)
0x00401f66: nop  ; nop  ; jmp dword [0x00443300] ;  (1 found)
0x00401f5e: nop  ; nop  ; jmp dword [0x00443304] ;  (1 found)
0x00401f56: nop  ; nop  ; jmp dword [0x00443308] ;  (1 found)
0x00401f4e: nop  ; nop  ; jmp dword [0x0044330C] ;  (1 found)
0x00401f46: nop  ; nop  ; jmp dword [0x00443310] ;  (1 found)
0x00401f3e: nop  ; nop  ; jmp dword [0x00443314] ;  (1 found)
0x00401f36: nop  ; nop  ; jmp dword [0x00443318] ;  (1 found)
0x00401f2e: nop  ; nop  ; jmp dword [0x0044331C] ;  (1 found)
0x0040ae4d: nop  ; nop  ; nop  ; jmp dword [0x00443230] ;  (1 found)
0x0040a9dd: nop  ; nop  ; nop  ; jmp dword [0x004432E8] ;  (1 found)
0x00401f2d: nop  ; nop  ; nop  ; jmp dword [0x0044331C] ;  (1 found)
0x0040ae4c: nop  ; nop  ; nop  ; nop  ; jmp dword [0x00443230] ;  (1 found)
0x0040a9dc: nop  ; nop  ; nop  ; nop  ; jmp dword [0x004432E8] ;  (1 found)
0x0040ae4b: nop  ; nop  ; nop  ; nop  ; nop  ; jmp dword [0x00443230] ;  (1 found)
0x0040a9db: nop  ; nop  ; nop  ; nop  ; nop  ; jmp dword [0x004432E8] ;  (1 found)
0x004012df: nop  ; sub esp, 0x1C ; mov dword [esp], 0x00000001 ; call dword [0x00443248] ;  (1 found)
0x0040aa92: nop  ; xor al, byte [eax+eax-0x70] ; nop  ; jmp dword [0x0044328C] ;  (1 found)
0x00403be5: or al, 0x00 ; add byte [eax], al ; add bl, ch ; retn 0x748D ;  (1 found)
0x00409fb7: or al, 0x00 ; add byte [eax], al ; add byte [ebx+0x5E5B20C4], al ; pop edi ; ret  ;  (1 found)
0x00404256: or al, 0x29 ; retn 0xFA83 ;  (1 found)
0x0040ab42: or al, 0x32 ; inc esp ; add byte [eax+0x0825FF90], dl ; xor al, byte [eax+eax-0x70] ; nop  ; jmp dword [0x00443204] ;  (1 found)
0x00401f52: or al, 0x33 ; inc esp ; add byte [eax+0x0825FF90], dl ; xor eax, dword [eax+eax-0x70] ; nop  ; jmp dword [0x00443304] ;  (1 found)
0x00405e34: or al, 0x39 ; retn 0x8D0F ;  (1 found)
0x004056db: or al, 0x5B ; pop esi ; pop edi ; pop ebp ; ret  ;  (1 found)
0x0040244d: or al, 0x66 ; nop  ; call eax ;  (1 found)
0x00405dd9: or al, 0x74 ; cmp cl, byte [ebx-0x41F0D3A9] ; add bh, byte [ecx] ; ret  ;  (1 found)
0x00405fa8: or al, 0x7F ; fiadd dword [ebx+0x5E5B1CC4] ; pop edi ; pop ebp ; ret  ;  (1 found)
0x004058ef: or al, 0x80 ; cmp ah, byte [0x830B8902+esi*2] ; les edx,  [eax] ; pop ebx ; ret  ;  (1 found)
0x00409b25: or al, 0x83 ; retn 0x8304 ;  (1 found)
0x00402607: or al, 0x85 ; div byte [eax+ecx-0x75] ; inc ebx ; add al, 0x89 ; xor al, 0x24 ; call eax ;  (1 found)
0x00409745: or al, 0x89 ; ret  ;  (1 found)
0x0040616c: or al, 0x8B ; inc esi ; add al, 0x89 ; retn 0xE083 ;  (1 found)
0x00402469: or al, 0xF3 ; ret  ;  (1 found)
0x00409b21: or al, byte [ebp-0x7CF38A37] ; retn 0x8304 ;  (1 found)
0x00402c12: or al, ch ; push 0x39000041 ; fmul dword [ecx-0x39ED883E] ; add al, 0x16 ; add byte [ebx+0x5E5B24C4], al ; ret  ;  (1 found)
0x00401ebb: or bh, al ; inc esp ; and al, 0x04 ; retn 0x40C6 ;  (1 found)
0x00405976: or bh, byte [eax+0x00000008] ; add esp, 0x18 ; pop ebx ; ret  ;  (1 found)
0x004062f2: or bh, byte [ecx] ; add byte [eax], al ; add esp, 0x44 ; pop ebx ; pop esi ; ret  ;  (1 found)
0x0040a9c1: or byte [eax+edx-0x7D], dh ; retn 0x0F01 ;  (1 found)
0x00405978: or byte [eax], al ; add byte [eax], al ; add esp, 0x18 ; pop ebx ; ret  ;  (1 found)
0x0040109d: or byte [eax], al ; add byte [eax], al ; call eax ;  (1 found)
0x0040a9d1: or byte [ebp-0x10], dh ; rep ret  ;  (1 found)
0x00405e5b: or byte [ebp-0x74F08A2E], al ; push edi ; add al, 0xF7 ; retn 0x01C0 ;  (1 found)
0x00405f1e: or byte [ebx-0x49F0D3C0], cl ; or byte [ecx], al ; ret  ;  (1 found)
0x00401f5a: or byte [ebx], dh ; inc esp ; add byte [eax+0x0425FF90], dl ; xor eax, dword [eax+eax-0x70] ; nop  ; jmp dword [0x00443300] ;  (1 found)
0x0040250f: or byte [ecx+0x48E82404], cl ; add al, byte [eax] ; add byte [eax+0x00000001], bh ; add esp, 0x1C ; retn 0x000C ;  (1 found)
0x00401b31: or byte [ecx-0x38FBDBAC], cl ; add al, 0x24 ; pop esp ; retn 0x0040 ;  (1 found)
0x00401727: or byte [ecx-0x38FBDBAC], cl ; add al, 0x24 ; xchg eax, edx ; rol dword [eax+0x00], 0xFFFFFFE8 ; sbb byte [ebx-0x36700000], dl ; ret  ;  (1 found)
0x0040157d: or byte [ecx-0x38FBDBBC], cl ; add al, 0x24 ; and cl, al ; inc eax ; add al, ch ; retn 0x0094 ;  (1 found)
0x00405f24: or byte [ecx], al ; ret  ;  (1 found)
0x00402702: or byte [ecx], bh ; fstenv  [ecx+ebp-0x77] ; retn 0x428B ;  (1 found)
0x0040ab4a: or byte [edx], dh ; inc esp ; add byte [eax+0x0425FF90], dl ; xor al, byte [eax+eax-0x70] ; nop  ; jmp dword [0x00443200] ;  (1 found)
0x0040242e: or dword [0x0040F024], eax ; pop ebx ; rep ret  ;  (1 found)
0x00405108: or dword [eax], eax ; add byte [eax], al ; add esp, 0x18 ; pop ebx ; ret  ;  (1 found)
0x00402bd3: or dword [eax], eax ; add byte [eax], al ; add esp, 0x1C ; ret  ;  (1 found)
0x00402b35: or dword [eax], eax ; pop eax ; pop ecx ; ret  ;  (1 found)
0x00402b34: or dword [ecx], 0x00000000 ; pop eax ; pop ecx ; ret  ;  (1 found)
0x00402429: or eax, 0x00000200 ; or dword [0x0040F024], eax ; pop ebx ; rep ret  ;  (1 found)
0x0040a5d2: or eax, 0x01 ; pop ebx ; pop esi ; ret  ;  (1 found)
0x00403af0: or eax, 0x8301C283 ; ret  ;  (1 found)
0x00405302: or eax, 0x8924C483 ; fcomp dword [ebx+0x5E] ; ret  ;  (1 found)
0x00409eb1: or eax, 0xEC830000 ; add al, 0x83 ; les ebx,  [eax] ; pop ebx ; ret  ;  (1 found)
0x00401133: or eax, dword [eax] ; add byte [eax], al ; call eax ;  (1 found)
0x0040183c: or eax, edx ; inc eax ; add bh, al ; inc ebp ; aam 0x17 ; retn 0x0040 ;  (1 found)
0x00401e69: or eax, esp ; ret  ;  (1 found)
0x00409b1a: or ebp, ebx ; adc eax, 0x8B00768D ; or al, byte [ebp-0x7CF38A37] ; retn 0x8304 ;  (1 found)
0x004051d1: or ebx, dword [ecx+0x00] ; add bh, al ; add byte [esi], dl ; add byte [eax], al ; add byte [ebx+0x5E5B14C4], al ; ret  ;  (1 found)
0x00401450: or ecx, dword [ecx+0x47E82404] ; xchg eax, edi ; add byte [eax], al ; sub esp, 0x04 ; leave  ; ret  ;  (1 found)
0x00401045: out 0x00, eax ; add byte [eax], al ; lea esi, dword [esi+0x00000000] ; xor eax, eax ; add esp, 0x1C ; retn 0x0004 ;  (1 found)
0x00409e48: out 0x83, eax ; clc  ; add dh, byte [esp+edx*2-0x7D] ; les ebx,  [eax] ; pop ebx ; ret  ;  (1 found)
0x004055f8: out 0x83, eax ; les ecx,  [ebx+ebx*2+0x5E] ; pop edi ; pop ebp ; ret  ;  (1 found)
0x004056d8: out 0x83, eax ; les ecx,  [ebx+ebx*2] ; pop esi ; pop edi ; pop ebp ; ret  ;  (1 found)
0x00403f0d: paddd mm7, mm7 ; jmp dword [ecx+0x0040F07C] ;  (1 found)
0x00403c1d: pcmpgtd mm2, qword [eax-0x7CFE3D7D] ; ret  ;  (1 found)
0x0040244a: pop ds ; sub esp, 0x0C ; nop  ; call eax ;  (1 found)
0x00402b37: pop eax ; pop ecx ; ret  ;  (1 found)
0x00401e65: pop ebp ; cld  ; leave  ; ret  ;  (1 found)
0x0040140b: pop ebp ; ret  ;  (1 found)
0x00401b6c: pop ebp ; ret  ;  (1 found)
0x004020c8: pop ebp ; ret  ;  (1 found)
0x0040229b: pop ebp ; ret  ;  (1 found)
0x004028a4: pop ebp ; ret  ;  (1 found)
0x00402926: pop ebp ; ret  ;  (1 found)
0x00402eec: pop ebp ; ret  ;  (1 found)
0x00402f43: pop ebp ; ret  ;  (1 found)
0x00402f8e: pop ebp ; ret  ;  (1 found)
0x004030dc: pop ebp ; ret  ;  (1 found)
0x0040312e: pop ebp ; ret  ;  (1 found)
0x0040421f: pop ebp ; ret  ;  (1 found)
0x004049bf: pop ebp ; ret  ;  (1 found)
0x00404c13: pop ebp ; ret  ;  (1 found)
0x0040366c: pop ebp ; ret  ;  (1 found)
0x00403be1: pop ebp ; ret  ;  (1 found)
0x00403dc7: pop ebp ; ret  ;  (1 found)
0x004040b5: pop ebp ; ret  ;  (1 found)
0x004041df: pop ebp ; ret  ;  (1 found)
0x00404fdc: pop ebp ; ret  ;  (1 found)
0x00405250: pop ebp ; ret  ;  (1 found)
0x0040522a: pop ebp ; ret  ;  (1 found)
0x0040528d: pop ebp ; ret  ;  (1 found)
0x004052be: pop ebp ; ret  ;  (1 found)
0x00405ccf: pop ebp ; ret  ;  (1 found)
0x004055ff: pop ebp ; ret  ;  (1 found)
0x004056df: pop ebp ; ret  ;  (1 found)
0x0040577b: pop ebp ; ret  ;  (1 found)
0x0040583d: pop ebp ; ret  ;  (1 found)
0x00408006: pop ebp ; ret  ;  (1 found)
0x0040801a: pop ebp ; ret  ;  (1 found)
0x00405fb1: pop ebp ; ret  ;  (1 found)
0x004061a0: pop ebp ; ret  ;  (1 found)
0x00406905: pop ebp ; ret  ;  (1 found)
0x00406c5a: pop ebp ; ret  ;  (1 found)
0x004073be: pop ebp ; ret  ;  (1 found)
0x0040a2f6: pop ebp ; ret  ;  (1 found)
0x00408300: pop ebp ; ret  ;  (1 found)
0x00408314: pop ebp ; ret  ;  (1 found)
0x00408337: pop ebp ; ret  ;  (1 found)
0x0040839a: pop ebp ; ret  ;  (1 found)
0x004084ed: pop ebp ; ret  ;  (1 found)
0x00408525: pop ebp ; ret  ;  (1 found)
0x00408565: pop ebp ; ret  ;  (1 found)
0x00408ac1: pop ebp ; ret  ;  (1 found)
0x00409aa8: pop ebp ; ret  ;  (1 found)
0x00409ae2: pop ebp ; ret  ;  (1 found)
0x00409e09: pop ebp ; ret  ;  (1 found)
0x0040a0fc: pop ebp ; ret  ;  (1 found)
0x0040a3df: pop ebp ; ret  ;  (1 found)
0x0040a379: pop ebp ; ret  ;  (1 found)
0x0040a560: pop ebp ; ret  ;  (1 found)
0x0040a7b0: pop ebp ; ret  ;  (1 found)
0x0040a82c: pop ebp ; ret  ;  (1 found)
0x0040a754: pop ebp ; ret  ;  (1 found)
0x0040a9a3: pop ebp ; ret  ;  (1 found)
0x0040a95a: pop ebp ; ret  ;  (1 found)
0x0040a8a1: pop ebp ; ret  ;  (1 found)
0x0040ac36: pop ebp ; ret  ;  (1 found)
0x0040acb0: pop ebp ; ret  ;  (1 found)
0x0040acc0: pop ebp ; ret  ;  (1 found)
0x0040acd4: pop ebp ; ret  ;  (1 found)
0x0040ad3e: pop ebp ; ret  ;  (1 found)
0x0040ad69: pop ebp ; ret  ;  (1 found)
0x0040ad9a: pop ebp ; ret  ;  (1 found)
0x0040ae2b: pop ebp ; ret  ;  (1 found)
0x00407273: pop ebp ; test al, 0x83 ; ret  ;  (1 found)
0x00405451: pop ebx ; das  ; add byte [eax], al ; add esp, 0x48 ; pop ebx ; ret  ;  (1 found)
0x00408015: pop ebx ; mov eax, ebp ; pop esi ; pop edi ; pop ebp ; ret  ;  (1 found)
0x00408395: pop ebx ; mov eax, ebp ; pop esi ; pop edi ; pop ebp ; ret  ;  (1 found)
0x004049ba: pop ebx ; mov eax, esi ; pop esi ; pop edi ; pop ebp ; ret  ;  (1 found)
0x00401409: pop ebx ; pop esi ; pop ebp ; ret  ;  (1 found)
0x00401b69: pop ebx ; pop esi ; pop edi ; pop ebp ; ret  ;  (1 found)
0x00402298: pop ebx ; pop esi ; pop edi ; pop ebp ; ret  ;  (1 found)
0x004020c5: pop ebx ; pop esi ; pop edi ; pop ebp ; ret  ;  (1 found)
0x004028a1: pop ebx ; pop esi ; pop edi ; pop ebp ; ret  ;  (1 found)
0x00402923: pop ebx ; pop esi ; pop edi ; pop ebp ; ret  ;  (1 found)
0x00404c10: pop ebx ; pop esi ; pop edi ; pop ebp ; ret  ;  (1 found)
0x00402f40: pop ebx ; pop esi ; pop edi ; pop ebp ; ret  ;  (1 found)
0x00402ee9: pop ebx ; pop esi ; pop edi ; pop ebp ; ret  ;  (1 found)
0x00402f8b: pop ebx ; pop esi ; pop edi ; pop ebp ; ret  ;  (1 found)
0x004030d9: pop ebx ; pop esi ; pop edi ; pop ebp ; ret  ;  (1 found)
0x0040312b: pop ebx ; pop esi ; pop edi ; pop ebp ; ret  ;  (1 found)
0x0040421b: pop ebx ; pop esi ; pop edi ; pop ebp ; ret  ;  (1 found)
0x0040421c: pop ebx ; pop esi ; pop edi ; pop ebp ; ret  ;  (1 found)
0x004041dc: pop ebx ; pop esi ; pop edi ; pop ebp ; ret  ;  (1 found)
0x00404c0f: pop ebx ; pop esi ; pop edi ; pop ebp ; ret  ;  (1 found)
0x00403669: pop ebx ; pop esi ; pop edi ; pop ebp ; ret  ;  (1 found)
0x00403bde: pop ebx ; pop esi ; pop edi ; pop ebp ; ret  ;  (1 found)
0x00403dc3: pop ebx ; pop esi ; pop edi ; pop ebp ; ret  ;  (1 found)
0x00403dc4: pop ebx ; pop esi ; pop edi ; pop ebp ; ret  ;  (1 found)
0x004040b1: pop ebx ; pop esi ; pop edi ; pop ebp ; ret  ;  (1 found)
0x004040b2: pop ebx ; pop esi ; pop edi ; pop ebp ; ret  ;  (1 found)
0x004041db: pop ebx ; pop esi ; pop edi ; pop ebp ; ret  ;  (1 found)
0x00404fd9: pop ebx ; pop esi ; pop edi ; pop ebp ; ret  ;  (1 found)
0x00404fd8: pop ebx ; pop esi ; pop edi ; pop ebp ; ret  ;  (1 found)
0x00405227: pop ebx ; pop esi ; pop edi ; pop ebp ; ret  ;  (1 found)
0x0040528a: pop ebx ; pop esi ; pop edi ; pop ebp ; ret  ;  (1 found)
0x0040524d: pop ebx ; pop esi ; pop edi ; pop ebp ; ret  ;  (1 found)
0x00405ccc: pop ebx ; pop esi ; pop edi ; pop ebp ; ret  ;  (1 found)
0x004052bb: pop ebx ; pop esi ; pop edi ; pop ebp ; ret  ;  (1 found)
0x004056dc: pop ebx ; pop esi ; pop edi ; pop ebp ; ret  ;  (1 found)
0x004055fc: pop ebx ; pop esi ; pop edi ; pop ebp ; ret  ;  (1 found)
0x00405778: pop ebx ; pop esi ; pop edi ; pop ebp ; ret  ;  (1 found)
0x0040583a: pop ebx ; pop esi ; pop edi ; pop ebp ; ret  ;  (1 found)
0x00408003: pop ebx ; pop esi ; pop edi ; pop ebp ; ret  ;  (1 found)
0x00405fae: pop ebx ; pop esi ; pop edi ; pop ebp ; ret  ;  (1 found)
0x0040619d: pop ebx ; pop esi ; pop edi ; pop ebp ; ret  ;  (1 found)
0x00406902: pop ebx ; pop esi ; pop edi ; pop ebp ; ret  ;  (1 found)
0x00406c57: pop ebx ; pop esi ; pop edi ; pop ebp ; ret  ;  (1 found)
0x004073bb: pop ebx ; pop esi ; pop edi ; pop ebp ; ret  ;  (1 found)
0x0040a2f3: pop ebx ; pop esi ; pop edi ; pop ebp ; ret  ;  (1 found)
0x0040a0f9: pop ebx ; pop esi ; pop edi ; pop ebp ; ret  ;  (1 found)
0x00408334: pop ebx ; pop esi ; pop edi ; pop ebp ; ret  ;  (1 found)
0x00408311: pop ebx ; pop esi ; pop edi ; pop ebp ; ret  ;  (1 found)
0x004082fd: pop ebx ; pop esi ; pop edi ; pop ebp ; ret  ;  (1 found)
0x00408522: pop ebx ; pop esi ; pop edi ; pop ebp ; ret  ;  (1 found)
0x004084ea: pop ebx ; pop esi ; pop edi ; pop ebp ; ret  ;  (1 found)
0x00408562: pop ebx ; pop esi ; pop edi ; pop ebp ; ret  ;  (1 found)
0x00408abe: pop ebx ; pop esi ; pop edi ; pop ebp ; ret  ;  (1 found)
0x00409adf: pop ebx ; pop esi ; pop edi ; pop ebp ; ret  ;  (1 found)
0x00409aa5: pop ebx ; pop esi ; pop edi ; pop ebp ; ret  ;  (1 found)
0x00409e06: pop ebx ; pop esi ; pop edi ; pop ebp ; ret  ;  (1 found)
0x0040a3dc: pop ebx ; pop esi ; pop edi ; pop ebp ; ret  ;  (1 found)
0x0040a376: pop ebx ; pop esi ; pop edi ; pop ebp ; ret  ;  (1 found)
0x0040a55d: pop ebx ; pop esi ; pop edi ; pop ebp ; ret  ;  (1 found)
0x0040a751: pop ebx ; pop esi ; pop edi ; pop ebp ; ret  ;  (1 found)
0x0040a829: pop ebx ; pop esi ; pop edi ; pop ebp ; ret  ;  (1 found)
0x0040a7ad: pop ebx ; pop esi ; pop edi ; pop ebp ; ret  ;  (1 found)
0x0040a89e: pop ebx ; pop esi ; pop edi ; pop ebp ; ret  ;  (1 found)
0x0040a957: pop ebx ; pop esi ; pop edi ; pop ebp ; ret  ;  (1 found)
0x0040a9a0: pop ebx ; pop esi ; pop edi ; pop ebp ; ret  ;  (1 found)
0x0040ac33: pop ebx ; pop esi ; pop edi ; pop ebp ; ret  ;  (1 found)
0x0040acbd: pop ebx ; pop esi ; pop edi ; pop ebp ; ret  ;  (1 found)
0x0040acad: pop ebx ; pop esi ; pop edi ; pop ebp ; ret  ;  (1 found)
0x0040acd1: pop ebx ; pop esi ; pop edi ; pop ebp ; ret  ;  (1 found)
0x0040ad66: pop ebx ; pop esi ; pop edi ; pop ebp ; ret  ;  (1 found)
0x0040ad3b: pop ebx ; pop esi ; pop edi ; pop ebp ; ret  ;  (1 found)
0x0040ad97: pop ebx ; pop esi ; pop edi ; pop ebp ; ret  ;  (1 found)
0x0040ae28: pop ebx ; pop esi ; pop edi ; pop ebp ; ret  ;  (1 found)
0x00402a53: pop ebx ; pop esi ; pop edi ; ret  ;  (1 found)
0x004032a8: pop ebx ; pop esi ; pop edi ; ret  ;  (1 found)
0x0040329c: pop ebx ; pop esi ; pop edi ; ret  ;  (1 found)
0x00403c95: pop ebx ; pop esi ; pop edi ; ret  ;  (1 found)
0x00406404: pop ebx ; pop esi ; pop edi ; ret  ;  (1 found)
0x0040643f: pop ebx ; pop esi ; pop edi ; ret  ;  (1 found)
0x0040822a: pop ebx ; pop esi ; pop edi ; ret  ;  (1 found)
0x00409beb: pop ebx ; pop esi ; pop edi ; ret  ;  (1 found)
0x00409fbf: pop ebx ; pop esi ; pop edi ; ret  ;  (1 found)
0x004032e8: pop ebx ; pop esi ; ret  ;  (1 found)
0x00402644: pop ebx ; pop esi ; ret  ;  (1 found)
0x0040262d: pop ebx ; pop esi ; ret  ;  (1 found)
0x00402645: pop ebx ; pop esi ; ret  ;  (1 found)
0x004026a8: pop ebx ; pop esi ; ret  ;  (1 found)
0x00402cb2: pop ebx ; pop esi ; ret  ;  (1 found)
0x00402c25: pop ebx ; pop esi ; ret  ;  (1 found)
0x00402c57: pop ebx ; pop esi ; ret  ;  (1 found)
0x00402d53: pop ebx ; pop esi ; ret  ;  (1 found)
0x00402ce7: pop ebx ; pop esi ; ret  ;  (1 found)
0x00404e36: pop ebx ; pop esi ; ret  ;  (1 found)
0x00404d6b: pop ebx ; pop esi ; ret  ;  (1 found)
0x00404d7a: pop ebx ; pop esi ; ret  ;  (1 found)
0x00404e35: pop ebx ; pop esi ; ret  ;  (1 found)
0x00404d6a: pop ebx ; pop esi ; ret  ;  (1 found)
0x00404d7b: pop ebx ; pop esi ; ret  ;  (1 found)
0x00404e6e: pop ebx ; pop esi ; ret  ;  (1 found)
0x00404e4f: pop ebx ; pop esi ; ret  ;  (1 found)
0x00404e4e: pop ebx ; pop esi ; ret  ;  (1 found)
0x00404e6f: pop ebx ; pop esi ; ret  ;  (1 found)
0x004051c7: pop ebx ; pop esi ; ret  ;  (1 found)
0x004051de: pop ebx ; pop esi ; ret  ;  (1 found)
0x004058aa: pop ebx ; pop esi ; ret  ;  (1 found)
0x00405308: pop ebx ; pop esi ; ret  ;  (1 found)
0x00407d9f: pop ebx ; pop esi ; ret  ;  (1 found)
0x00407dbc: pop ebx ; pop esi ; ret  ;  (1 found)
0x00407dce: pop ebx ; pop esi ; ret  ;  (1 found)
0x00407e45: pop ebx ; pop esi ; ret  ;  (1 found)
0x00407f01: pop ebx ; pop esi ; ret  ;  (1 found)
0x00406258: pop ebx ; pop esi ; ret  ;  (1 found)
0x0040622d: pop ebx ; pop esi ; ret  ;  (1 found)
0x004062f9: pop ebx ; pop esi ; ret  ;  (1 found)
0x00406329: pop ebx ; pop esi ; ret  ;  (1 found)
0x0040a5d5: pop ebx ; pop esi ; ret  ;  (1 found)
0x0040255e: pop ebx ; pop esi ; retn 0x000C ;  (1 found)
0x00402590: pop ebx ; pop esi ; retn 0x000C ;  (1 found)
0x00402434: pop ebx ; rep ret  ;  (1 found)
0x0040249e: pop ebx ; ret  ;  (1 found)
0x004026d6: pop ebx ; ret  ;  (1 found)
0x00402724: pop ebx ; ret  ;  (1 found)
0x0040510f: pop ebx ; ret  ;  (1 found)
0x004050be: pop ebx ; ret  ;  (1 found)
0x00405075: pop ebx ; ret  ;  (1 found)
0x00405136: pop ebx ; ret  ;  (1 found)
0x004058fa: pop ebx ; ret  ;  (1 found)
0x0040594f: pop ebx ; ret  ;  (1 found)
0x00405959: pop ebx ; ret  ;  (1 found)
0x0040597f: pop ebx ; ret  ;  (1 found)
0x004059b3: pop ebx ; ret  ;  (1 found)
0x004059c4: pop ebx ; ret  ;  (1 found)
0x004054fd: pop ebx ; ret  ;  (1 found)
0x00405458: pop ebx ; ret  ;  (1 found)
0x00405522: pop ebx ; ret  ;  (1 found)
0x0040810c: pop ebx ; ret  ;  (1 found)
0x00409b2f: pop ebx ; ret  ;  (1 found)
0x00409b30: pop ebx ; ret  ;  (1 found)
0x00409b38: pop ebx ; ret  ;  (1 found)
0x00409b3c: pop ebx ; ret  ;  (1 found)
0x00409b70: pop ebx ; ret  ;  (1 found)
0x00409e51: pop ebx ; ret  ;  (1 found)
0x00409eba: pop ebx ; ret  ;  (1 found)
0x0040a038: pop ebx ; ret  ;  (1 found)
0x0040a062: pop ebx ; ret  ;  (1 found)
0x00405103: pop ecx ; add byte [eax], al ; mov dword [eax], 0x00000009 ; add esp, 0x18 ; pop ebx ; ret  ;  (1 found)
0x004050b6: pop ecx ; add byte [eax], al ; xor eax, eax ; add esp, 0x18 ; pop ebx ; ret  ;  (1 found)
0x00402b38: pop ecx ; ret  ;  (1 found)
0x00407ebb: pop ecx ; sub eax, dword [eax] ; add byte [ecx-0x7A3FCE3E], cl ; sal byte [ebx+ecx-0x7D], cl ; retn 0x8901 ;  (1 found)
0x00401b6b: pop edi ; pop ebp ; ret  ;  (1 found)
0x004020c7: pop edi ; pop ebp ; ret  ;  (1 found)
0x0040229a: pop edi ; pop ebp ; ret  ;  (1 found)
0x00402925: pop edi ; pop ebp ; ret  ;  (1 found)
0x004028a3: pop edi ; pop ebp ; ret  ;  (1 found)
0x00402eeb: pop edi ; pop ebp ; ret  ;  (1 found)
0x00402f42: pop edi ; pop ebp ; ret  ;  (1 found)
0x00402f8d: pop edi ; pop ebp ; ret  ;  (1 found)
0x0040312d: pop edi ; pop ebp ; ret  ;  (1 found)
0x004030db: pop edi ; pop ebp ; ret  ;  (1 found)
0x0040421e: pop edi ; pop ebp ; ret  ;  (1 found)
0x004049be: pop edi ; pop ebp ; ret  ;  (1 found)
0x00404c12: pop edi ; pop ebp ; ret  ;  (1 found)
0x0040366b: pop edi ; pop ebp ; ret  ;  (1 found)
0x00403be0: pop edi ; pop ebp ; ret  ;  (1 found)
0x00403dc6: pop edi ; pop ebp ; ret  ;  (1 found)
0x004040b4: pop edi ; pop ebp ; ret  ;  (1 found)
0x004041de: pop edi ; pop ebp ; ret  ;  (1 found)
0x00404fdb: pop edi ; pop ebp ; ret  ;  (1 found)
0x00405229: pop edi ; pop ebp ; ret  ;  (1 found)
0x00405cce: pop edi ; pop ebp ; ret  ;  (1 found)
0x0040528c: pop edi ; pop ebp ; ret  ;  (1 found)
0x0040524f: pop edi ; pop ebp ; ret  ;  (1 found)
0x004052bd: pop edi ; pop ebp ; ret  ;  (1 found)
0x004055fe: pop edi ; pop ebp ; ret  ;  (1 found)
0x004056de: pop edi ; pop ebp ; ret  ;  (1 found)
0x0040577a: pop edi ; pop ebp ; ret  ;  (1 found)
0x0040583c: pop edi ; pop ebp ; ret  ;  (1 found)
0x00408019: pop edi ; pop ebp ; ret  ;  (1 found)
0x00408005: pop edi ; pop ebp ; ret  ;  (1 found)
0x00405fb0: pop edi ; pop ebp ; ret  ;  (1 found)
0x0040619f: pop edi ; pop ebp ; ret  ;  (1 found)
0x00406904: pop edi ; pop ebp ; ret  ;  (1 found)
0x00406c59: pop edi ; pop ebp ; ret  ;  (1 found)
0x004073bd: pop edi ; pop ebp ; ret  ;  (1 found)
0x0040a2f5: pop edi ; pop ebp ; ret  ;  (1 found)
0x004082ff: pop edi ; pop ebp ; ret  ;  (1 found)
0x00408399: pop edi ; pop ebp ; ret  ;  (1 found)
0x00408336: pop edi ; pop ebp ; ret  ;  (1 found)
0x00408313: pop edi ; pop ebp ; ret  ;  (1 found)
0x00408524: pop edi ; pop ebp ; ret  ;  (1 found)
0x004084ec: pop edi ; pop ebp ; ret  ;  (1 found)
0x00408ac0: pop edi ; pop ebp ; ret  ;  (1 found)
0x00408564: pop edi ; pop ebp ; ret  ;  (1 found)
0x00409aa7: pop edi ; pop ebp ; ret  ;  (1 found)
0x00409ae1: pop edi ; pop ebp ; ret  ;  (1 found)
0x00409e08: pop edi ; pop ebp ; ret  ;  (1 found)
0x0040a0fb: pop edi ; pop ebp ; ret  ;  (1 found)
0x0040a3de: pop edi ; pop ebp ; ret  ;  (1 found)
0x0040a378: pop edi ; pop ebp ; ret  ;  (1 found)
0x0040a55f: pop edi ; pop ebp ; ret  ;  (1 found)
0x0040a82b: pop edi ; pop ebp ; ret  ;  (1 found)
0x0040a7af: pop edi ; pop ebp ; ret  ;  (1 found)
0x0040a753: pop edi ; pop ebp ; ret  ;  (1 found)
0x0040a9a2: pop edi ; pop ebp ; ret  ;  (1 found)
0x0040a959: pop edi ; pop ebp ; ret  ;  (1 found)
0x0040a8a0: pop edi ; pop ebp ; ret  ;  (1 found)
0x0040acaf: pop edi ; pop ebp ; ret  ;  (1 found)
0x0040ac35: pop edi ; pop ebp ; ret  ;  (1 found)
0x0040acbf: pop edi ; pop ebp ; ret  ;  (1 found)
0x0040acd3: pop edi ; pop ebp ; ret  ;  (1 found)
0x0040ad3d: pop edi ; pop ebp ; ret  ;  (1 found)
0x0040ad68: pop edi ; pop ebp ; ret  ;  (1 found)
0x0040ad99: pop edi ; pop ebp ; ret  ;  (1 found)
0x0040ae2a: pop edi ; pop ebp ; ret  ;  (1 found)
0x00402a55: pop edi ; ret  ;  (1 found)
0x0040329e: pop edi ; ret  ;  (1 found)
0x004032aa: pop edi ; ret  ;  (1 found)
0x00403c97: pop edi ; ret  ;  (1 found)
0x00406406: pop edi ; ret  ;  (1 found)
0x00406441: pop edi ; ret  ;  (1 found)
0x0040822c: pop edi ; ret  ;  (1 found)
0x00409bed: pop edi ; ret  ;  (1 found)
0x00409fc1: pop edi ; ret  ;  (1 found)
0x00401e71: pop edx ; ret  ;  (1 found)
0x00406238: pop es ; add byte [eax], al ; add bl, ch ; and dword [esi-0x70], 0xFFFFFF89 ; retn 0x448B ;  (1 found)
0x004024c8: pop es ; rep ret  ;  (1 found)
0x00402948: pop es ; ret  ;  (1 found)
0x0040140a: pop esi ; pop ebp ; ret  ;  (1 found)
0x00401b6a: pop esi ; pop edi ; pop ebp ; ret  ;  (1 found)
0x004020c6: pop esi ; pop edi ; pop ebp ; ret  ;  (1 found)
0x00402299: pop esi ; pop edi ; pop ebp ; ret  ;  (1 found)
0x00402924: pop esi ; pop edi ; pop ebp ; ret  ;  (1 found)
0x004028a2: pop esi ; pop edi ; pop ebp ; ret  ;  (1 found)
0x00402f41: pop esi ; pop edi ; pop ebp ; ret  ;  (1 found)
0x00402eea: pop esi ; pop edi ; pop ebp ; ret  ;  (1 found)
0x00402f8c: pop esi ; pop edi ; pop ebp ; ret  ;  (1 found)
0x004030da: pop esi ; pop edi ; pop ebp ; ret  ;  (1 found)
0x0040312c: pop esi ; pop edi ; pop ebp ; ret  ;  (1 found)
0x0040421d: pop esi ; pop edi ; pop ebp ; ret  ;  (1 found)
0x004049bc: pop esi ; pop edi ; pop ebp ; ret  ;  (1 found)
0x004049bd: pop esi ; pop edi ; pop ebp ; ret  ;  (1 found)
0x00404c11: pop esi ; pop edi ; pop ebp ; ret  ;  (1 found)
0x0040366a: pop esi ; pop edi ; pop ebp ; ret  ;  (1 found)
0x00403bdf: pop esi ; pop edi ; pop ebp ; ret  ;  (1 found)
0x00403dc5: pop esi ; pop edi ; pop ebp ; ret  ;  (1 found)
0x004040b3: pop esi ; pop edi ; pop ebp ; ret  ;  (1 found)
0x004041dd: pop esi ; pop edi ; pop ebp ; ret  ;  (1 found)
0x00404fda: pop esi ; pop edi ; pop ebp ; ret  ;  (1 found)
0x00405228: pop esi ; pop edi ; pop ebp ; ret  ;  (1 found)
0x0040524e: pop esi ; pop edi ; pop ebp ; ret  ;  (1 found)
0x0040528b: pop esi ; pop edi ; pop ebp ; ret  ;  (1 found)
0x00405ccd: pop esi ; pop edi ; pop ebp ; ret  ;  (1 found)
0x004052bc: pop esi ; pop edi ; pop ebp ; ret  ;  (1 found)
0x004055fd: pop esi ; pop edi ; pop ebp ; ret  ;  (1 found)
0x004056dd: pop esi ; pop edi ; pop ebp ; ret  ;  (1 found)
0x0040583b: pop esi ; pop edi ; pop ebp ; ret  ;  (1 found)
0x00405779: pop esi ; pop edi ; pop ebp ; ret  ;  (1 found)
0x00408004: pop esi ; pop edi ; pop ebp ; ret  ;  (1 found)
0x00408018: pop esi ; pop edi ; pop ebp ; ret  ;  (1 found)
0x0040619e: pop esi ; pop edi ; pop ebp ; ret  ;  (1 found)
0x00405faf: pop esi ; pop edi ; pop ebp ; ret  ;  (1 found)
0x00406903: pop esi ; pop edi ; pop ebp ; ret  ;  (1 found)
0x00406c58: pop esi ; pop edi ; pop ebp ; ret  ;  (1 found)
0x004073bc: pop esi ; pop edi ; pop ebp ; ret  ;  (1 found)
0x0040a2f4: pop esi ; pop edi ; pop ebp ; ret  ;  (1 found)
0x0040a0fa: pop esi ; pop edi ; pop ebp ; ret  ;  (1 found)
0x004082fe: pop esi ; pop edi ; pop ebp ; ret  ;  (1 found)
0x00408335: pop esi ; pop edi ; pop ebp ; ret  ;  (1 found)
0x00408312: pop esi ; pop edi ; pop ebp ; ret  ;  (1 found)
0x00408398: pop esi ; pop edi ; pop ebp ; ret  ;  (1 found)
0x004084eb: pop esi ; pop edi ; pop ebp ; ret  ;  (1 found)
0x00408523: pop esi ; pop edi ; pop ebp ; ret  ;  (1 found)
0x00408563: pop esi ; pop edi ; pop ebp ; ret  ;  (1 found)
0x00408abf: pop esi ; pop edi ; pop ebp ; ret  ;  (1 found)
0x00409aa6: pop esi ; pop edi ; pop ebp ; ret  ;  (1 found)
0x00409ae0: pop esi ; pop edi ; pop ebp ; ret  ;  (1 found)
0x00409e07: pop esi ; pop edi ; pop ebp ; ret  ;  (1 found)
0x0040a377: pop esi ; pop edi ; pop ebp ; ret  ;  (1 found)
0x0040a3dd: pop esi ; pop edi ; pop ebp ; ret  ;  (1 found)
0x0040a55e: pop esi ; pop edi ; pop ebp ; ret  ;  (1 found)
0x0040a7ae: pop esi ; pop edi ; pop ebp ; ret  ;  (1 found)
0x0040a82a: pop esi ; pop edi ; pop ebp ; ret  ;  (1 found)
0x0040a752: pop esi ; pop edi ; pop ebp ; ret  ;  (1 found)
0x0040a958: pop esi ; pop edi ; pop ebp ; ret  ;  (1 found)
0x0040a9a1: pop esi ; pop edi ; pop ebp ; ret  ;  (1 found)
0x0040a89f: pop esi ; pop edi ; pop ebp ; ret  ;  (1 found)
0x0040ac34: pop esi ; pop edi ; pop ebp ; ret  ;  (1 found)
0x0040acbe: pop esi ; pop edi ; pop ebp ; ret  ;  (1 found)
0x0040acae: pop esi ; pop edi ; pop ebp ; ret  ;  (1 found)
0x0040acd2: pop esi ; pop edi ; pop ebp ; ret  ;  (1 found)
0x0040ad3c: pop esi ; pop edi ; pop ebp ; ret  ;  (1 found)
0x0040ad98: pop esi ; pop edi ; pop ebp ; ret  ;  (1 found)
0x0040ad67: pop esi ; pop edi ; pop ebp ; ret  ;  (1 found)
0x0040ae29: pop esi ; pop edi ; pop ebp ; ret  ;  (1 found)
0x00402a54: pop esi ; pop edi ; ret  ;  (1 found)
0x0040329d: pop esi ; pop edi ; ret  ;  (1 found)
0x004032a9: pop esi ; pop edi ; ret  ;  (1 found)
0x00403c96: pop esi ; pop edi ; ret  ;  (1 found)
0x00406405: pop esi ; pop edi ; ret  ;  (1 found)
0x00406440: pop esi ; pop edi ; ret  ;  (1 found)
0x0040822b: pop esi ; pop edi ; ret  ;  (1 found)
0x00409bec: pop esi ; pop edi ; ret  ;  (1 found)
0x00409fc0: pop esi ; pop edi ; ret  ;  (1 found)
0x004032e9: pop esi ; ret  ;  (1 found)
0x0040262e: pop esi ; ret  ;  (1 found)
0x00402646: pop esi ; ret  ;  (1 found)
0x004026a9: pop esi ; ret  ;  (1 found)
0x00402c26: pop esi ; ret  ;  (1 found)
0x00402ce8: pop esi ; ret  ;  (1 found)
0x00402cb3: pop esi ; ret  ;  (1 found)
0x00402c58: pop esi ; ret  ;  (1 found)
0x00402d54: pop esi ; ret  ;  (1 found)
0x00404d7c: pop esi ; ret  ;  (1 found)
0x00404e37: pop esi ; ret  ;  (1 found)
0x00404e50: pop esi ; ret  ;  (1 found)
0x00404d6c: pop esi ; ret  ;  (1 found)
0x00404e70: pop esi ; ret  ;  (1 found)
0x004051c8: pop esi ; ret  ;  (1 found)
0x004051df: pop esi ; ret  ;  (1 found)
0x004058ab: pop esi ; ret  ;  (1 found)
0x00405309: pop esi ; ret  ;  (1 found)
0x00407dcf: pop esi ; ret  ;  (1 found)
0x00407e46: pop esi ; ret  ;  (1 found)
0x00407dbd: pop esi ; ret  ;  (1 found)
0x00407f02: pop esi ; ret  ;  (1 found)
0x00406259: pop esi ; ret  ;  (1 found)
0x0040622e: pop esi ; ret  ;  (1 found)
0x004062fa: pop esi ; ret  ;  (1 found)
0x0040632a: pop esi ; ret  ;  (1 found)
0x00407da0: pop esi ; ret  ;  (1 found)
0x0040a5d6: pop esi ; ret  ;  (1 found)
0x0040255f: pop esi ; retn 0x000C ;  (1 found)
0x00402591: pop esi ; retn 0x000C ;  (1 found)
0x00406901: pop esp ; pop ebx ; pop esi ; pop edi ; pop ebp ; ret  ;  (1 found)
0x00401b39: pop esp ; retn 0x0040 ;  (1 found)
0x0040aada: pop esp ; xor al, byte [eax+eax-0x70] ; nop  ; jmp dword [0x00443254] ;  (1 found)
0x00401843: pop ss ; retn 0x0040 ;  (1 found)
0x0040467f: psubsw mm0, qword [esi-0x7D000000] ; retn 0x0F01 ;  (1 found)
0x0040520d: push 0x00000001 ; jmp dword [0x0040C8A4+eax*4] ;  (1 found)
0x00402c14: push 0x39000041 ; fmul dword [ecx-0x39ED883E] ; add al, 0x16 ; add byte [ebx+0x5E5B24C4], al ; ret  ;  (1 found)
0x00403c91: push cs ; add esp, 0x10 ; pop ebx ; pop esi ; pop edi ; ret  ;  (1 found)
0x0040a172: push cs ; mov edx, dword [esp+0x20] ; mov dword [eax+0x10], 0x00000001 ; mov dword [eax+0x14], edx ; add esp, 0x1C ; ret  ;  (1 found)
0x004092b3: push dword [edx+ebp*8-0x7D] ; retn 0xBE01 ;  (1 found)
0x00406211: push dword [esp+ebp-0x77] ; retn 0x448B ;  (1 found)
0x004062c2: push dword [esp+ecx*2-0x77] ; retn 0x448B ;  (1 found)
0x0040156b: push eax ; add dword [ecx+0x40FA6015], ecx ; add cl, cl ; ret  ;  (1 found)
0x0040813d: push eax ; mov byte [ecx], al ; mov eax, 0x00000001 ; add esp, 0x4C ; ret  ;  (1 found)
0x00401be5: push eax ; ret  ;  (1 found)
0x0040aaea: push eax ; xor al, byte [eax+eax-0x70] ; nop  ; jmp dword [0x0044324C] ;  (1 found)
0x0040772d: push ebp ; adc al, 0xE9 ; retn 0xFFFB ;  (1 found)
0x00404255: push ebp ; or al, 0x29 ; retn 0xFA83 ;  (1 found)
0x00405e61: push edi ; add al, 0xF7 ; retn 0x01C0 ;  (1 found)
0x0040576c: push edi ; add ebp, dword [ecx] ; retn 0xDBE8 ;  (1 found)
0x00405e33: push edi ; or al, 0x39 ; retn 0x8D0F ;  (1 found)
0x00405fa7: push edi ; or al, 0x7F ; fiadd dword [ebx+0x5E5B1CC4] ; pop edi ; pop ebp ; ret  ;  (1 found)
0x004080c2: push edx ; sub dword [eax], eax ; add byte [ecx-0x7A3FCE3E], cl ; sal byte [ebx+ecx-0x7D], cl ; retn 0x8901 ;  (1 found)
0x00403a60: push es ; mov dword [esp], eax ; call edi ;  (1 found)
0x00409e4d: push esp ; add esp, 0x18 ; pop ebx ; ret  ;  (1 found)
0x00402b7c: push esp ; and al, 0x0C ; xor eax, eax ; add esp, 0x1C ; ret  ;  (1 found)
0x0040a174: push esp ; and al, 0x20 ; mov dword [eax+0x10], 0x00000001 ; mov dword [eax+0x14], edx ; add esp, 0x1C ; ret  ;  (1 found)
0x0040aae2: push esp ; xor al, byte [eax+eax-0x70] ; nop  ; jmp dword [0x00443250] ;  (1 found)
0x004051d7: push ss ; add byte [eax], al ; add byte [ebx+0x5E5B14C4], al ; ret  ;  (1 found)
0x00402c20: push ss ; add byte [ebx+0x5E5B24C4], al ; ret  ;  (1 found)
0x0040156f: pushad  ; cli  ; inc eax ; add cl, cl ; ret  ;  (1 found)
0x0040185e: pushfd  ; retn 0x0040 ;  (1 found)
0x004014a8: pushfd  ; xchg eax, ebp ; add byte [eax], al ; nop  ; leave  ; ret  ;  (1 found)
0x0040aa7a: pushfd  ; xor al, byte [eax+eax-0x70] ; nop  ; jmp dword [0x00443298] ;  (1 found)
0x00402ee8: rcr byte [ebx+0x5E], 0x0000005F ; pop ebp ; ret  ;  (1 found)
0x0040329b: rcr byte [ebx+0x5E], 0x0000005F ; ret  ;  (1 found)
0x00402ce6: rcr byte [ebx+0x5E], 1  ; ret  ;  (1 found)
0x00402cb1: rcr byte [ebx+0x5E], 1  ; ret  ;  (1 found)
0x004058a9: rcr byte [ebx+0x5E], 1  ; ret  ;  (1 found)
0x00402435: rep ret  ;  (1 found)
0x0040246a: rep ret  ;  (1 found)
0x004024c9: rep ret  ;  (1 found)
0x0040a9d3: rep ret  ;  (1 found)
0x0040a9d4: rep ret  ;  (1 found)
0x00401367: ret  ;  (1 found)
0x0040140c: ret  ;  (1 found)
0x00401574: ret  ;  (1 found)
0x004014ae: ret  ;  (1 found)
0x0040145d: ret  ;  (1 found)
0x004016d2: ret  ;  (1 found)
0x0040173a: ret  ;  (1 found)
0x00401632: ret  ;  (1 found)
0x004015c7: ret  ;  (1 found)
0x00401e75: ret  ;  (1 found)
0x00401b6d: ret  ;  (1 found)
0x0040193c: ret  ;  (1 found)
0x00401e74: ret  ;  (1 found)
0x00401bf2: ret  ;  (1 found)
0x00401e72: ret  ;  (1 found)
0x00401e68: ret  ;  (1 found)
0x00401e6b: ret  ;  (1 found)
0x00401bda: ret  ;  (1 found)
0x00401be6: ret  ;  (1 found)
0x00401e85: ret  ;  (1 found)
0x00401e7c: ret  ;  (1 found)
0x00401e88: ret  ;  (1 found)
0x00401e79: ret  ;  (1 found)
0x00401e80: ret  ;  (1 found)
0x00401f2c: ret  ;  (1 found)
0x00401e81: ret  ;  (1 found)
0x00401e83: ret  ;  (1 found)
0x004020c9: ret  ;  (1 found)
0x0040229c: ret  ;  (1 found)
0x00402436: ret  ;  (1 found)
0x0040246b: ret  ;  (1 found)
0x004024ca: ret  ;  (1 found)
0x004024a5: ret  ;  (1 found)
0x0040249f: ret  ;  (1 found)
0x00402582: ret  ;  (1 found)
0x0040262f: ret  ;  (1 found)
0x00402667: ret  ;  (1 found)
0x00402647: ret  ;  (1 found)
0x004025c2: ret  ;  (1 found)
0x004026aa: ret  ;  (1 found)
0x004026d7: ret  ;  (1 found)
0x004026fc: ret  ;  (1 found)
0x00402725: ret  ;  (1 found)
0x00402927: ret  ;  (1 found)
0x004029b9: ret  ;  (1 found)
0x00402949: ret  ;  (1 found)
0x00402b39: ret  ;  (1 found)
0x00402b84: ret  ;  (1 found)
0x00402a56: ret  ;  (1 found)
0x00402a28: ret  ;  (1 found)
0x00402784: ret  ;  (1 found)
0x004028a5: ret  ;  (1 found)
0x00402857: ret  ;  (1 found)
0x004027ce: ret  ;  (1 found)
0x00402c59: ret  ;  (1 found)
0x00402cb4: ret  ;  (1 found)
0x00402c27: ret  ;  (1 found)
0x00402bda: ret  ;  (1 found)
0x00402ce9: ret  ;  (1 found)
0x00402d55: ret  ;  (1 found)
0x00402d62: ret  ;  (1 found)
0x00402cee: ret  ;  (1 found)
0x00402eed: ret  ;  (1 found)
0x00402f44: ret  ;  (1 found)
0x00402f8f: ret  ;  (1 found)
0x004030dd: ret  ;  (1 found)
0x004032ea: ret  ;  (1 found)
0x00403210: ret  ;  (1 found)
0x0040312f: ret  ;  (1 found)
0x004032b3: ret  ;  (1 found)
0x004030f1: ret  ;  (1 found)
0x004031f1: ret  ;  (1 found)
0x0040320b: ret  ;  (1 found)
0x004030e5: ret  ;  (1 found)
0x0040329f: ret  ;  (1 found)
0x004032ab: ret  ;  (1 found)
0x00403307: ret  ;  (1 found)
0x004033d9: ret  ;  (1 found)
0x00404341: ret  ;  (1 found)
0x0040487a: ret  ;  (1 found)
0x004048ba: ret  ;  (1 found)
0x004048fa: ret  ;  (1 found)
0x00404920: ret  ;  (1 found)
0x0040492c: ret  ;  (1 found)
0x00404c14: ret  ;  (1 found)
0x004049c0: ret  ;  (1 found)
0x00404d6d: ret  ;  (1 found)
0x0040397d: ret  ;  (1 found)
0x0040344e: ret  ;  (1 found)
0x0040366d: ret  ;  (1 found)
0x004035bd: ret  ;  (1 found)
0x00403be2: ret  ;  (1 found)
0x00403b0a: ret  ;  (1 found)
0x00403c39: ret  ;  (1 found)
0x00403af5: ret  ;  (1 found)
0x00403c24: ret  ;  (1 found)
0x00403cbe: ret  ;  (1 found)
0x00403c3f: ret  ;  (1 found)
0x00403c98: ret  ;  (1 found)
0x00403dc8: ret  ;  (1 found)
0x004040b6: ret  ;  (1 found)
0x00404220: ret  ;  (1 found)
0x004041e0: ret  ;  (1 found)
0x00405de3: ret  ;  (1 found)
0x00404e38: ret  ;  (1 found)
0x00404d84: ret  ;  (1 found)
0x00404e71: ret  ;  (1 found)
0x00404e51: ret  ;  (1 found)
0x00404d7d: ret  ;  (1 found)
0x00404f4a: ret  ;  (1 found)
0x00404f92: ret  ;  (1 found)
0x00404fdd: ret  ;  (1 found)
0x00404f68: ret  ;  (1 found)
0x004050bf: ret  ;  (1 found)
0x004051c9: ret  ;  (1 found)
0x00405110: ret  ;  (1 found)
0x00405154: ret  ;  (1 found)
0x00405076: ret  ;  (1 found)
0x004051e0: ret  ;  (1 found)
0x00405137: ret  ;  (1 found)
0x004051f5: ret  ;  (1 found)
0x0040522b: ret  ;  (1 found)
0x0040528e: ret  ;  (1 found)
0x00405251: ret  ;  (1 found)
0x004052bf: ret  ;  (1 found)
0x00405cd0: ret  ;  (1 found)
0x00405b70: ret  ;  (1 found)
0x004058fb: ret  ;  (1 found)
0x00405950: ret  ;  (1 found)
0x0040595a: ret  ;  (1 found)
0x004058d2: ret  ;  (1 found)
0x00405902: ret  ;  (1 found)
0x00405980: ret  ;  (1 found)
0x00405992: ret  ;  (1 found)
0x004059b4: ret  ;  (1 found)
0x00405d1d: ret  ;  (1 found)
0x004059c5: ret  ;  (1 found)
0x00405a8a: ret  ;  (1 found)
0x00405b06: ret  ;  (1 found)
0x004056e0: ret  ;  (1 found)
0x00405459: ret  ;  (1 found)
0x00405478: ret  ;  (1 found)
0x004054fe: ret  ;  (1 found)
0x0040530a: ret  ;  (1 found)
0x00405523: ret  ;  (1 found)
0x00405600: ret  ;  (1 found)
0x0040577c: ret  ;  (1 found)
0x004057dc: ret  ;  (1 found)
0x00405845: ret  ;  (1 found)
0x00405876: ret  ;  (1 found)
0x004058ac: ret  ;  (1 found)
0x0040583e: ret  ;  (1 found)
0x00405867: ret  ;  (1 found)
0x004012de: ret  ;  (1 found)
0x00401289: ret  ;  (1 found)
0x0040801b: ret  ;  (1 found)
0x00407f03: ret  ;  (1 found)
0x00408007: ret  ;  (1 found)
0x00406030: ret  ;  (1 found)
0x00405fb2: ret  ;  (1 found)
0x00405f26: ret  ;  (1 found)
0x0040612a: ret  ;  (1 found)
0x0040622f: ret  ;  (1 found)
0x0040625a: ret  ;  (1 found)
0x004061a1: ret  ;  (1 found)
0x004061b3: ret  ;  (1 found)
0x00406263: ret  ;  (1 found)
0x004062fb: ret  ;  (1 found)
0x00406407: ret  ;  (1 found)
0x00406334: ret  ;  (1 found)
0x0040632b: ret  ;  (1 found)
0x00406442: ret  ;  (1 found)
0x00406906: ret  ;  (1 found)
0x00406b78: ret  ;  (1 found)
0x00406b61: ret  ;  (1 found)
0x00406b1d: ret  ;  (1 found)
0x00406c5b: ret  ;  (1 found)
0x00406fe1: ret  ;  (1 found)
0x00407027: ret  ;  (1 found)
0x00406d09: ret  ;  (1 found)
0x00406e71: ret  ;  (1 found)
0x00406cbb: ret  ;  (1 found)
0x00406ea6: ret  ;  (1 found)
0x004071f1: ret  ;  (1 found)
0x004073bf: ret  ;  (1 found)
0x004073d0: ret  ;  (1 found)
0x00407260: ret  ;  (1 found)
0x004073e1: ret  ;  (1 found)
0x00407237: ret  ;  (1 found)
0x00407276: ret  ;  (1 found)
0x00407927: ret  ;  (1 found)
0x00407941: ret  ;  (1 found)
0x00407981: ret  ;  (1 found)
0x00407a46: ret  ;  (1 found)
0x00407b91: ret  ;  (1 found)
0x004078fc: ret  ;  (1 found)
0x00407ade: ret  ;  (1 found)
0x00407ba1: ret  ;  (1 found)
0x004079cf: ret  ;  (1 found)
0x00407b00: ret  ;  (1 found)
0x00407ca8: ret  ;  (1 found)
0x004073f8: ret  ;  (1 found)
0x00407a35: ret  ;  (1 found)
0x00407c22: ret  ;  (1 found)
0x00407dbe: ret  ;  (1 found)
0x00407dd0: ret  ;  (1 found)
0x00407e47: ret  ;  (1 found)
0x00407d93: ret  ;  (1 found)
0x00407da1: ret  ;  (1 found)
0x0040a332: ret  ;  (1 found)
0x0040a261: ret  ;  (1 found)
0x0040a2f7: ret  ;  (1 found)
0x00408148: ret  ;  (1 found)
0x004081ba: ret  ;  (1 found)
0x0040810d: ret  ;  (1 found)
0x00408301: ret  ;  (1 found)
0x00408315: ret  ;  (1 found)
0x00408338: ret  ;  (1 found)
0x0040822d: ret  ;  (1 found)
0x004082c1: ret  ;  (1 found)
0x0040839b: ret  ;  (1 found)
0x00408526: ret  ;  (1 found)
0x004084ee: ret  ;  (1 found)
0x00408446: ret  ;  (1 found)
0x00408566: ret  ;  (1 found)
0x00408480: ret  ;  (1 found)
0x00408ac2: ret  ;  (1 found)
0x0040895a: ret  ;  (1 found)
0x00409149: ret  ;  (1 found)
0x004096a1: ret  ;  (1 found)
0x00409831: ret  ;  (1 found)
0x00409aa9: ret  ;  (1 found)
0x00409abb: ret  ;  (1 found)
0x00409747: ret  ;  (1 found)
0x00409ae3: ret  ;  (1 found)
0x004097a6: ret  ;  (1 found)
0x004098cf: ret  ;  (1 found)
0x00409620: ret  ;  (1 found)
0x004092ad: ret  ;  (1 found)
0x0040925a: ret  ;  (1 found)
0x00409b3d: ret  ;  (1 found)
0x00409b39: ret  ;  (1 found)
0x00409b31: ret  ;  (1 found)
0x00409b57: ret  ;  (1 found)
0x00409b71: ret  ;  (1 found)
0x00409e0a: ret  ;  (1 found)
0x00409bee: ret  ;  (1 found)
0x00409e12: ret  ;  (1 found)
0x00409e52: ret  ;  (1 found)
0x00409ebb: ret  ;  (1 found)
0x00409fc2: ret  ;  (1 found)
0x00409f20: ret  ;  (1 found)
0x0040a039: ret  ;  (1 found)
0x0040a115: ret  ;  (1 found)
0x0040a0fd: ret  ;  (1 found)
0x0040a063: ret  ;  (1 found)
0x0040a184: ret  ;  (1 found)
0x0040a1ae: ret  ;  (1 found)
0x0040ae0a: ret  ;  (1 found)
0x0040a3e0: ret  ;  (1 found)
0x0040a34d: ret  ;  (1 found)
0x0040a37a: ret  ;  (1 found)
0x0040a518: ret  ;  (1 found)
0x0040a6f1: ret  ;  (1 found)
0x0040a569: ret  ;  (1 found)
0x0040a561: ret  ;  (1 found)
0x0040a5d7: ret  ;  (1 found)
0x0040a579: ret  ;  (1 found)
0x0040a585: ret  ;  (1 found)
0x0040a5ac: ret  ;  (1 found)
0x0040a755: ret  ;  (1 found)
0x0040a7b1: ret  ;  (1 found)
0x0040a8a2: ret  ;  (1 found)
0x0040a92f: ret  ;  (1 found)
0x0040a95b: ret  ;  (1 found)
0x0040a82d: ret  ;  (1 found)
0x0040a92d: ret  ;  (1 found)
0x0040a9a4: ret  ;  (1 found)
0x0040a9d5: ret  ;  (1 found)
0x0040ac88: ret  ;  (1 found)
0x0040acb1: ret  ;  (1 found)
0x0040acc1: ret  ;  (1 found)
0x0040acc9: ret  ;  (1 found)
0x0040acd5: ret  ;  (1 found)
0x0040ad3f: ret  ;  (1 found)
0x0040ad6a: ret  ;  (1 found)
0x0040ad9b: ret  ;  (1 found)
0x0040ae2c: ret  ;  (1 found)
0x0040adf5: ret  ;  (1 found)
0x0040ac37: ret  ;  (1 found)
0x0040ac2b: ret  ;  (1 found)
0x00402388: retn 0x0000 ;  (1 found)
0x004023ea: retn 0x0000 ;  (1 found)
0x00402422: retn 0x0000 ;  (1 found)
0x0040237d: retn 0x0000 ;  (1 found)
0x004023df: retn 0x0000 ;  (1 found)
0x004030aa: retn 0x0000 ;  (1 found)
0x00403167: retn 0x0000 ;  (1 found)
0x00404b2a: retn 0x0000 ;  (1 found)
0x0040430a: retn 0x0001 ;  (1 found)
0x00401055: retn 0x0004 ;  (1 found)
0x00402592: retn 0x000C ;  (1 found)
0x004024f8: retn 0x000C ;  (1 found)
0x00402520: retn 0x000C ;  (1 found)
0x00402560: retn 0x000C ;  (1 found)
0x00402334: retn 0x0035 ;  (1 found)
0x0040185f: retn 0x0040 ;  (1 found)
0x00401844: retn 0x0040 ;  (1 found)
0x0040183d: retn 0x0040 ;  (1 found)
0x00401b3a: retn 0x0040 ;  (1 found)
0x00401b5d: retn 0x0040 ;  (1 found)
0x00401b0c: retn 0x0040 ;  (1 found)
0x00401bce: retn 0x0040 ;  (1 found)
0x0040289a: retn 0x0081 ;  (1 found)
0x0040158a: retn 0x0094 ;  (1 found)
0x00406710: retn 0x0101 ;  (1 found)
0x0040915b: retn 0x01B8 ;  (1 found)
0x00405e64: retn 0x01C0 ;  (1 found)
0x004066a4: retn 0x0489 ;  (1 found)
0x00405a02: retn 0x0E7E ;  (1 found)
0x00404361: retn 0x0F01 ;  (1 found)
0x00404686: retn 0x0F01 ;  (1 found)
0x00403445: retn 0x0F01 ;  (1 found)
0x00403eb9: retn 0x0F01 ;  (1 found)
0x0040a9c5: retn 0x0F01 ;  (1 found)
0x00402c1b: retn 0x1277 ;  (1 found)
0x00403cf5: retn 0x150B ;  (1 found)
0x00409bb5: retn 0x3889 ;  (1 found)
0x00404007: retn 0x3901 ;  (1 found)
0x00408408: retn 0x3901 ;  (1 found)
0x0040a4a3: retn 0x3901 ;  (1 found)
0x00407195: retn 0x3904 ;  (1 found)
0x00403715: retn 0x3C01 ;  (1 found)
0x00401ec0: retn 0x40C6 ;  (1 found)
0x00402708: retn 0x428B ;  (1 found)
0x00402131: retn 0x428D ;  (1 found)
0x00406215: retn 0x448B ;  (1 found)
0x00406241: retn 0x448B ;  (1 found)
0x004062c6: retn 0x448B ;  (1 found)
0x00406312: retn 0x448B ;  (1 found)
0x00406481: retn 0x448B ;  (1 found)
0x004049e0: retn 0x448D ;  (1 found)
0x00401fe3: retn 0x4589 ;  (1 found)
0x004017ca: retn 0x458B ;  (1 found)
0x00401b2a: retn 0x458B ;  (1 found)
0x0040935d: retn 0x542B ;  (1 found)
0x00408e4e: retn 0x5489 ;  (1 found)
0x00405f01: retn 0x548B ;  (1 found)
0x00403beb: retn 0x748D ;  (1 found)
0x0040678c: retn 0x7C8D ;  (1 found)
0x00404edb: retn 0x8080 ;  (1 found)
0x00404f28: retn 0x8080 ;  (1 found)
0x004037f4: retn 0x8301 ;  (1 found)
0x00403af2: retn 0x8301 ;  (1 found)
0x00403c21: retn 0x8301 ;  (1 found)
0x00403c3c: retn 0x8301 ;  (1 found)
0x00405df1: retn 0x8301 ;  (1 found)
0x004093fd: retn 0x8301 ;  (1 found)
0x00409b27: retn 0x8304 ;  (1 found)
0x00403894: retn 0x8401 ;  (1 found)
0x00409bd8: retn 0x8401 ;  (1 found)
0x0040704a: retn 0x840F ;  (1 found)
0x00407a5f: retn 0x850F ;  (1 found)
0x0040171d: retn 0x858D ;  (1 found)
0x004018e8: retn 0x858D ;  (1 found)
0x00403538: retn 0x8901 ;  (1 found)
0x004058b3: retn 0x8901 ;  (1 found)
0x00407ec8: retn 0x8901 ;  (1 found)
0x00408206: retn 0x8901 ;  (1 found)
0x004080cf: retn 0x8901 ;  (1 found)
0x00408f62: retn 0x8901 ;  (1 found)
0x0040461b: retn 0x8902 ;  (1 found)
0x00403e45: retn 0x8902 ;  (1 found)
0x0040a563: retn 0x8B04 ;  (1 found)
0x0040a573: retn 0x8B04 ;  (1 found)
0x00405e36: retn 0x8D0F ;  (1 found)
0x00409051: retn 0x940B ;  (1 found)
0x004065f9: retn 0x9475 ;  (1 found)
0x00402cc4: retn 0xB60F ;  (1 found)
0x004092b7: retn 0xBE01 ;  (1 found)
0x00407ec0: retn 0xC031 ;  (1 found)
0x004080c7: retn 0xC031 ;  (1 found)
0x004066f2: retn 0xC031 ;  (1 found)
0x004081fe: retn 0xC031 ;  (1 found)
0x0040941a: retn 0xC1D8 ;  (1 found)
0x00408831: retn 0xC283 ;  (1 found)
0x00406d63: retn 0xC5F6 ;  (1 found)
0x00402091: retn 0xC601 ;  (1 found)
0x00402151: retn 0xC601 ;  (1 found)
0x00402044: retn 0xC601 ;  (1 found)
0x004021f1: retn 0xC601 ;  (1 found)
0x00406518: retn 0xC689 ;  (1 found)
0x0040500e: retn 0xCCE8 ;  (1 found)
0x00404a51: retn 0xCE89 ;  (1 found)
0x0040ac7e: retn 0xD089 ;  (1 found)
0x004013ec: retn 0xD285 ;  (1 found)
0x00409a58: retn 0xD304 ;  (1 found)
0x0040a51b: retn 0xD304 ;  (1 found)
0x004074a9: retn 0xD889 ;  (1 found)
0x00407a0f: retn 0xD889 ;  (1 found)
0x0040adb7: retn 0xD889 ;  (1 found)
0x0040576f: retn 0xDBE8 ;  (1 found)
0x004088d1: retn 0xDC01 ;  (1 found)
0x00408833: retn 0xDC01 ;  (1 found)
0x00406171: retn 0xE083 ;  (1 found)
0x004066e9: retn 0xE0D3 ;  (1 found)
0x00408df6: retn 0xE1E9 ;  (1 found)
0x004054b3: retn 0xE281 ;  (1 found)
0x00405700: retn 0xE883 ;  (1 found)
0x004022b5: retn 0xE901 ;  (1 found)
0x00409fd9: retn 0xEA81 ;  (1 found)
0x00406a6d: retn 0xEA83 ;  (1 found)
0x004038a9: retn 0xEB01 ;  (1 found)
0x0040a7e5: retn 0xF083 ;  (1 found)
0x00406f7f: retn 0xF375 ;  (1 found)
0x0040a20a: retn 0xF377 ;  (1 found)
0x00402098: retn 0xF575 ;  (1 found)
0x00406536: retn 0xF601 ;  (1 found)
0x00405923: retn 0xF8C1 ;  (1 found)
0x004094ed: retn 0xF980 ;  (1 found)
0x0040154d: retn 0xFA80 ;  (1 found)
0x00404258: retn 0xFA83 ;  (1 found)
0x00405f96: retn 0xFA89 ;  (1 found)
0x00406ef2: retn 0xFAC1 ;  (1 found)
0x004072b6: retn 0xFAC1 ;  (1 found)
0x00401ee9: retn 0xFFF5 ;  (1 found)
0x00401c0e: retn 0xFFF8 ;  (1 found)
0x00407b7d: retn 0xFFF8 ;  (1 found)
0x00407730: retn 0xFFFB ;  (1 found)
0x00402f15: retn 0xFFFE ;  (1 found)
0x00401363: rol byte [eax+0x00], 0xFFFFFF89 ; ret  ;  (1 found)
0x00401443: rol byte [eax+0x00], 1  ; call eax ;  (1 found)
0x004013b2: rol byte [eax+0x00], 1  ; call esi ;  (1 found)
0x00402417: rol byte [ebp-0x47FA862E], 0x00000000 ; add dword [eax], eax ; add bh, dh ; retn 0x0000 ;  (1 found)
0x00406a61: rol byte [ebx+0x45896FF8], cl ; fmul dword [ecx-0x6BF023B3] ; retn 0xEA83 ;  (1 found)
0x00402d4f: rol byte [ebx+0x5E5B14C4], 0xFFFFFFC3 ; lea esi, dword [esi+0x00] ; lea edi, dword [edi+0x00000000] ; xor eax, eax ; ret  ;  (1 found)
0x0040ad37: rol byte [ebx+0x5E5B1CC4], cl ; pop edi ; pop ebp ; ret  ;  (1 found)
0x00402a4f: rol byte [ebx+0x5E5B20C4], cl ; pop edi ; ret  ;  (1 found)
0x004068f5: rol byte [ecx], 0x00000000 ; add byte [ecx-0x000E9E18], bl ; inc dword [ebx+0x5E5B5CC4] ; pop edi ; pop ebp ; ret  ;  (1 found)
0x00408f5f: rol byte [ecx], 0xFFFFFF83 ; retn 0x8901 ;  (1 found)
0x00407192: rol byte [edx], 0xFFFFFF83 ; retn 0x3904 ;  (1 found)
0x00401e6f: rol dword [0xC389C35A], 0xFFFFFFC3 ; xchg ebx, esp ; dec ecx ; ret  ;  (1 found)
0x00401836: rol dword [eax+0x00], 0xFFFFFFC7 ; inc ebp ; fmul dword [ebx] ; retn 0x0040 ;  (1 found)
0x00401586: rol dword [eax+0x00], 0xFFFFFFE8 ; retn 0x0094 ;  (1 found)
0x00401730: rol dword [eax+0x00], 0xFFFFFFE8 ; sbb byte [ebx-0x36700000], dl ; ret  ;  (1 found)
0x00402cab: rol dword [ebp-0x76288A2E], 0xFFFFFFD0 ; pop ebx ; pop esi ; ret  ;  (1 found)
0x0040a370: rol dword [ebx-0x1776E33C], cl ; pop ebx ; pop esi ; pop edi ; pop ebp ; ret  ;  (1 found)
0x00403891: rol dword [ecx], 0xFFFFFF83 ; retn 0x8401 ;  (1 found)
0x00405944: ror byte [ebp+0x00048504], 0x00000000 ; add byte [ebx-0x3CA4E73C], al ; add esp, 0x18 ; mov eax, 0x00000004 ; pop ebx ; ret  ;  (1 found)
0x00405836: ror byte [ebp+0x5E5BF465], 0x0000005F ; pop ebp ; ret  ;  (1 found)
0x004073b7: ror byte [ebp+0x5E5BF465], 1  ; pop edi ; pop ebp ; ret  ;  (1 found)
0x00405221: ror byte [ecx+0x04C4832B], 0x0000005B ; pop esi ; pop edi ; pop ebp ; ret  ;  (1 found)
0x004052b5: ror byte [ecx+0x04C4832B], 0x0000005B ; pop esi ; pop edi ; pop ebp ; ret  ;  (1 found)
0x0040ae22: ror byte [ecx+0x1CC483F2], 1  ; pop ebx ; pop esi ; pop edi ; pop ebp ; ret  ;  (1 found)
0x0040a583: ror byte [ecx-0x00AC163D], 0xFFFFFFFF ; call dword [eax+0x0026748D] ;  (1 found)
0x004055f3: ror byte [ecx-0x1880F7AD], 0xFFFFFF83 ; les ecx,  [ebx+ebx*2+0x5E] ; pop edi ; pop ebp ; ret  ;  (1 found)
0x004056d3: ror byte [ecx-0x1880F7AD], 0xFFFFFF83 ; les ecx,  [ebx+ebx*2] ; pop esi ; pop edi ; pop ebp ; ret  ;  (1 found)
0x00405fa5: ror byte [ecx-0x2580F3A9], 0xFFFFFF83 ; les ebx,  [ebx+ebx*2] ; pop esi ; pop edi ; pop ebp ; ret  ;  (1 found)
0x0040ac80: ror byte [ecx-0x76090816], 1  ; aad 0x89 ; ret  ;  (1 found)
0x0040491e: ror byte [ecx-0x76F58B3D], 0x00000004 ; and al, 0xE8 ; sub eax, 0x89000065 ; ret  ;  (1 found)
0x00407d90: ror byte [edi], 0xFFFFFF84 ; ret  ;  (1 found)
0x00405e2b: ror byte [edi], 0xFFFFFF88 ; add dword [ecx], 0x578B0000 ; or al, 0x39 ; retn 0x8D0F ;  (1 found)
0x00406707: ror byte [edi], cl ; mov al, dh ; add al, byte [eax] ; add byte [edi], cl ; movsb  ; retn 0x0101 ;  (1 found)
0x0040718f: ror dword [eax], 0xFFFFFF83 ; rol byte [edx], 0xFFFFFF83 ; retn 0x3904 ;  (1 found)
0x0040a99a: ror dword [ecx+0x1CC4831E], cl ; pop ebx ; pop esi ; pop edi ; pop ebp ; ret  ;  (1 found)
0x0040a94b: ror dword [ecx+0x244C8BCA], 1  ; cmp al, 0x89 ; adc dword [ebx+0x5E5B1CC4], eax ; pop edi ; pop ebp ; ret  ;  (1 found)
0x004059a4: ror dword [ecx-0x01DB1727], 0xFFFFFFFF ; inc dword [ebp-0x7CFA8A40] ; les ebp,  [eax] ; pop ebx ; ret  ;  (1 found)
0x0040a0f0: ror dword [ecx-0x3B7CEFBE], cl ; sub al, 0x89 ; fcomp dword [ebx+0x5E] ; pop edi ; pop ebp ; ret  ;  (1 found)
0x00403cf4: sahf  ; retn 0x150B ;  (1 found)
0x004059ad: sal byte [ebp+0x05], 0xFFFFFF83 ; les ebp,  [eax] ; pop ebx ; ret  ;  (1 found)
0x00402605: sal byte [ebp+0x0C], 0xFFFFFF85 ; div byte [eax+ecx-0x75] ; inc ebx ; add al, 0x89 ; xor al, 0x24 ; call eax ;  (1 found)
0x004026ce: sal byte [ebp+0x0F], 0xFFFFFF83 ; les ebx,  [eax] ; xor eax, eax ; pop ebx ; ret  ;  (1 found)
0x0040263d: sal byte [ebp+0x10], 0xFFFFFF83 ; les edx,  [ecx+ecx*4] ; pop ebx ; pop esi ; ret  ;  (1 found)
0x00402779: sal byte [ebp+0x65], 0xFFFFFFB8 ; add dword [eax], eax ; add byte [eax], al ; add esp, 0x1C ; ret  ;  (1 found)
0x00402ee1: sal byte [ebp-0x12], 0xFFFFFF83 ; les edi,  [ecx+esi] ; rcr byte [ebx+0x5E], 0x0000005F ; pop ebp ; ret  ;  (1 found)
0x00402464: sal byte [ebp-0x17], 0xFFFFFF83 ; les ecx,  [ebx+esi*8] ; ret  ;  (1 found)
0x00403125: sal byte [ebp-0x18], 0xFFFFFF83 ; les ebp,  [ebx+ebx*2] ; pop esi ; pop edi ; pop ebp ; ret  ;  (1 found)
0x00402cad: sal byte [ebp-0x29], cl ; mov eax, edx ; pop ebx ; pop esi ; ret  ;  (1 found)
0x00407ec4: sal byte [ebx+ecx-0x7D], cl ; retn 0x8901 ;  (1 found)
0x004080cb: sal byte [ebx+ecx-0x7D], cl ; retn 0x8901 ;  (1 found)
0x00408202: sal byte [ebx+ecx-0x7D], cl ; retn 0x8901 ;  (1 found)
0x0040143c: sal byte [ecx+ecx-0x39], 0x00000004 ; and al, 0xB8 ; rol byte [eax+0x00], 1  ; call eax ;  (1 found)
0x0040abba: sal byte [ecx], 1  ; inc esp ; add byte [eax-0x33DA0070], dl ; xor dword [eax+eax-0x70], eax ; nop  ; jmp dword [0x004431C8] ;  (1 found)
0x0040ad35: sal byte [ecx], 1  ; rol byte [ebx+0x5E5B1CC4], cl ; pop edi ; pop ebp ; ret  ;  (1 found)
0x00402448: sal byte [edi+ebx-0x7D], 0xFFFFFFEC ; or al, 0x66 ; nop  ; call eax ;  (1 found)
0x00406ee5: sal byte [edi+edx+0x2D], 0x0000006C ; leave  ; inc eax ; add byte [ecx+0x0107E283], bl ; retn 0xFAC1 ;  (1 found)
0x00403973: sal byte [edi+edx-0x75], 0x00000045 ; mov esp, 0x8304408B ; ret  ;  (1 found)
0x004026f6: sal byte [edi+edx-0x75], cl ; add bh, byte [ecx] ; ret  ;  (1 found)
0x0040506d: sal byte [edx+eax-0x77], 0xFFFFFFD8 ; add esp, 0x08 ; pop ebx ; ret  ;  (1 found)
0x00405148: sal byte [edx+ecx-0x75], 0xFFFFFF80 ; adc al, 0x01 ; add byte [eax], al ; add esp, 0x0C ; ret  ;  (1 found)
0x0040aa32: sal byte [edx], 0x00000044 ; add byte [eax-0x43DA0070], dl ; xor al, byte [eax+eax-0x70] ; nop  ; jmp dword [0x004432B8] ;  (1 found)
0x0040aa12: sal byte [edx], 1  ; inc esp ; add byte [eax-0x33DA0070], dl ; xor al, byte [eax+eax-0x70] ; nop  ; jmp dword [0x004432C8] ;  (1 found)
0x0040a170: sal byte [esi+ecx-0x75], 0x00000054 ; and al, 0x20 ; mov dword [eax+0x10], 0x00000001 ; mov dword [eax+0x14], edx ; add esp, 0x1C ; ret  ;  (1 found)
0x00409b2d: sal dword [edi-0x10], cl ; pop ebx ; ret  ;  (1 found)
0x00406226: salc  ; cmp dword [eax], eax ; add byte [ebx+0x5E5B44C4], al ; ret  ;  (1 found)
0x0040a02d: sar cl, 0x00000040 ; add byte [ecx-0x7CE48BED], cl ; les ebx,  [eax] ; pop ebx ; ret  ;  (1 found)
0x0040293c: sar dh, 0xFFFFFFFF ; jmp dword [ecx+0x0040F05C] ;  (1 found)
0x00406b17: sbb al, 0x0F ; mov dh, 0x45 ; in al, 0x83 ; ret  ;  (1 found)
0x0040ab22: sbb al, 0x32 ; inc esp ; add byte [eax+0x1825FF90], dl ; xor al, byte [eax+eax-0x70] ; nop  ; jmp dword [0x00443214] ;  (1 found)
0x00401f32: sbb al, 0x33 ; inc esp ; add byte [eax+0x1825FF90], dl ; xor eax, dword [eax+eax-0x70] ; nop  ; jmp dword [0x00443314] ;  (1 found)
0x00405777: sbb al, 0x5B ; pop esi ; pop edi ; pop ebp ; ret  ;  (1 found)
0x00405fad: sbb al, 0x5B ; pop esi ; pop edi ; pop ebp ; ret  ;  (1 found)
0x0040a956: sbb al, 0x5B ; pop esi ; pop edi ; pop ebp ; ret  ;  (1 found)
0x0040a99f: sbb al, 0x5B ; pop esi ; pop edi ; pop ebp ; ret  ;  (1 found)
0x0040ac32: sbb al, 0x5B ; pop esi ; pop edi ; pop ebp ; ret  ;  (1 found)
0x0040acbc: sbb al, 0x5B ; pop esi ; pop edi ; pop ebp ; ret  ;  (1 found)
0x0040acd0: sbb al, 0x5B ; pop esi ; pop edi ; pop ebp ; ret  ;  (1 found)
0x0040acac: sbb al, 0x5B ; pop esi ; pop edi ; pop ebp ; ret  ;  (1 found)
0x0040ad65: sbb al, 0x5B ; pop esi ; pop edi ; pop ebp ; ret  ;  (1 found)
0x0040ad96: sbb al, 0x5B ; pop esi ; pop edi ; pop ebp ; ret  ;  (1 found)
0x0040ad3a: sbb al, 0x5B ; pop esi ; pop edi ; pop ebp ; ret  ;  (1 found)
0x0040ae27: sbb al, 0x5B ; pop esi ; pop edi ; pop ebp ; ret  ;  (1 found)
0x00403e43: sbb al, 0x83 ; retn 0x8902 ;  (1 found)
0x0040a02b: sbb al, 0x85 ; sar cl, 0x00000040 ; add byte [ecx-0x7CE48BED], cl ; les ebx,  [eax] ; pop ebx ; ret  ;  (1 found)
0x004082b6: sbb al, 0x89 ; test byte [ebp+0x000027BC], 0x00000000 ; add byte [ecx], al ; ret  ;  (1 found)
0x00401302: sbb al, 0xC7 ; add al, 0x24 ; add al, byte [eax] ; add byte [eax], al ; call dword [0x00443248] ;  (1 found)
0x004012e2: sbb al, 0xC7 ; add al, 0x24 ; add dword [eax], eax ; add byte [eax], al ; call dword [0x00443248] ;  (1 found)
0x00405953: sbb byte [eax+0x00000004], bh ; pop ebx ; ret  ;  (1 found)
0x00407d8e: sbb byte [ebp-0x3C7BF040], al ; add byte [eax], al ; add byte [ebx+0x02B834C4], al ; add byte [eax], al ; add byte [ebx+0x5E], bl ; ret  ;  (1 found)
0x00401734: sbb byte [ebx-0x36700000], dl ; ret  ;  (1 found)
0x0040594e: sbb byte [ebx-0x3D], bl ; add esp, 0x18 ; mov eax, 0x00000004 ; pop ebx ; ret  ;  (1 found)
0x00409b69: sbb byte [ebx-0x3F7CE73C], al ; add al, 0x5B ; ret  ;  (1 found)
0x00401f3a: sbb byte [ebx], dh ; inc esp ; add byte [eax+0x1425FF90], dl ; xor eax, dword [eax+eax-0x70] ; nop  ; jmp dword [0x00443310] ;  (1 found)
0x00401eb7: sbb byte [ecx-0x38F7DBAC], cl ; inc esp ; and al, 0x04 ; retn 0x40C6 ;  (1 found)
0x0040a92a: sbb byte [edi], cl ; xchg eax, ebp ; ret  ;  (1 found)
0x0040ab2a: sbb byte [edx], dh ; inc esp ; add byte [eax+0x1425FF90], dl ; xor al, byte [eax+eax-0x70] ; nop  ; jmp dword [0x00443210] ;  (1 found)
0x0040a5d0: sbb eax, eax ; or eax, 0x01 ; pop ebx ; pop esi ; ret  ;  (1 found)
0x0040a5cf: sbb eax, eax ; or eax, 0x01 ; pop ebx ; pop esi ; ret  ;  (1 found)
0x00402b7b: scasb  ; push esp ; and al, 0x0C ; xor eax, eax ; add esp, 0x1C ; ret  ;  (1 found)
0x00405942: sete al ; lea eax, dword [0x00000004+eax*4] ; add esp, 0x18 ; pop ebx ; ret  ;  (1 found)
0x00409b2a: shl byte [eax], 0x00000039 ; sal dword [edi-0x10], cl ; pop ebx ; ret  ;  (1 found)
0x004066ed: shl dword [eax], 0x74 ; add al, 0x89 ; retn 0xC031 ;  (1 found)
0x004030d3: shr byte [ecx], 1  ; fadd dword [ebx+0x5E5B2CC4] ; pop edi ; pop ebp ; ret  ;  (1 found)
0x0040a02e: stc  ; inc eax ; add byte [ecx-0x7CE48BED], cl ; les ebx,  [eax] ; pop ebx ; ret  ;  (1 found)
0x00406251: stosd  ; cmp dword [eax], eax ; add byte [ebx+0x5E5B44C4], al ; ret  ;  (1 found)
0x00402c50: sub al, 0x41 ; add byte [eax], al ; add esp, 0x24 ; pop ebx ; pop esi ; ret  ;  (1 found)
0x0040312a: sub al, 0x5B ; pop esi ; pop edi ; pop ebp ; ret  ;  (1 found)
0x004030d8: sub al, 0x5B ; pop esi ; pop edi ; pop ebp ; ret  ;  (1 found)
0x0040619c: sub al, 0x5B ; pop esi ; pop edi ; pop ebp ; ret  ;  (1 found)
0x0040a0f6: sub al, 0x89 ; fcomp dword [ebx+0x5E] ; pop edi ; pop ebp ; ret  ;  (1 found)
0x00406213: sub al, 0x89 ; retn 0x448B ;  (1 found)
0x004081ae: sub al, byte [eax] ; add byte [eax], al ; mov eax, 0xFFFFFFFF ; add esp, 0x4C ; ret  ;  (1 found)
0x00401857: sub al, byte [edx] ; add byte [eax], al ; mov eax, dword [0x0040C29C+eax*4] ; jmp eax ;  (1 found)
0x004024c1: sub al, dh ; inc eax ; add byte [ebp-0x0CF88B40], al ; ret  ;  (1 found)
0x004081fa: sub byte [eax], al ; add byte [ecx-0x7A3FCE3E], cl ; sal byte [ebx+ecx-0x7D], cl ; retn 0x8901 ;  (1 found)
0x004080c3: sub dword [eax], eax ; add byte [ecx-0x7A3FCE3E], cl ; sal byte [ebx+ecx-0x7D], cl ; retn 0x8901 ;  (1 found)
0x004016c8: sub eax, 0x01 ; mov dword [0x0040FA60], eax ; nop  ; leave  ; ret  ;  (1 found)
0x004012d7: sub eax, 0x83000098 ; les edi,  [ebx+eax*8] ; nop  ; sub esp, 0x1C ; mov dword [esp], 0x00000001 ; call dword [0x00443248] ;  (1 found)
0x00404927: sub eax, 0x89000065 ; ret  ;  (1 found)
0x00407ebc: sub eax, dword [eax] ; add byte [ecx-0x7A3FCE3E], cl ; sal byte [ebx+ecx-0x7D], cl ; retn 0x8901 ;  (1 found)
0x00405244: sub eax, dword [ebx+0x03B804C4] ; add byte [eax], al ; add byte [ebx+0x5E], bl ; pop edi ; pop ebp ; ret  ;  (1 found)
0x00405281: sub eax, dword [ebx+0x4CB804C4] ; add byte [eax], al ; add byte [ebx+0x5E], bl ; pop edi ; pop ebp ; ret  ;  (1 found)
0x00405223: sub eax, dword [ebx+0x5E5B04C4] ; pop edi ; pop ebp ; ret  ;  (1 found)
0x004052b7: sub eax, dword [ebx+0x5E5B04C4] ; pop edi ; pop ebp ; ret  ;  (1 found)
0x00402b32: sub ecx, eax ; or dword [ecx], 0x00000000 ; pop eax ; pop ecx ; ret  ;  (1 found)
0x00402627: sub esp, 0x04 ; add esp, 0x14 ; pop ebx ; pop esi ; ret  ;  (1 found)
0x00409eb4: sub esp, 0x04 ; add esp, 0x18 ; pop ebx ; ret  ;  (1 found)
0x0040a05c: sub esp, 0x04 ; add esp, 0x18 ; pop ebx ; ret  ;  (1 found)
0x0040271c: sub esp, 0x04 ; add esp, 0x18 ; xor eax, eax ; pop ebx ; ret  ;  (1 found)
0x00409f1a: sub esp, 0x04 ; add esp, 0x1C ; ret  ;  (1 found)
0x00401459: sub esp, 0x04 ; leave  ; ret  ;  (1 found)
0x00401e5c: sub esp, 0x04 ; mov eax, 0x00000000 ; mov ebx, dword [ebp-0x04] ; leave  ; ret  ;  (1 found)
0x004026a0: sub esp, 0x04 ; mov eax, esi ; add esp, 0x14 ; pop ebx ; pop esi ; ret  ;  (1 found)
0x0040244b: sub esp, 0x0C ; nop  ; call eax ;  (1 found)
0x004012e0: sub esp, 0x1C ; mov dword [esp], 0x00000001 ; call dword [0x00443248] ;  (1 found)
0x00401300: sub esp, 0x1C ; mov dword [esp], 0x00000002 ; call dword [0x00443248] ;  (1 found)
0x0040a32c: test ah, cl ; add byte [eax], al ; add dh, dh ; ret  ;  (1 found)
0x0040aa62: test al, 0x32 ; inc esp ; add byte [eax-0x5BDA0070], dl ; xor al, byte [eax+eax-0x70] ; nop  ; jmp dword [0x004432A0] ;  (1 found)
0x00407274: test al, 0x83 ; ret  ;  (1 found)
0x004078fa: test al, 0x83 ; ret  ;  (1 found)
0x004079cd: test al, 0x83 ; ret  ;  (1 found)
0x00407d92: test bl, al ; add byte [eax], al ; add byte [ebx+0x02B834C4], al ; add byte [eax], al ; add byte [ebx+0x5E], bl ; ret  ;  (1 found)
0x0040269d: test byte [eax], al ; add byte [ebx-0x0F76FB14], al ; add esp, 0x14 ; pop ebx ; pop esi ; ret  ;  (1 found)
0x004082b8: test byte [ebp+0x000027BC], 0x00000000 ; add byte [ecx], al ; ret  ;  (1 found)
0x004030cd: test byte [ebx-0x77000000], al ; shr byte [ecx], 1  ; fadd dword [ebx+0x5E5B2CC4] ; pop edi ; pop ebp ; ret  ;  (1 found)
0x004040aa: test byte [ecx-0x0B9A72F0], 0xFFFFFF89 ; pop ebx ; pop esi ; pop edi ; pop ebp ; ret  ;  (1 found)
0x0040aaaa: test byte [edx], dh ; inc esp ; add byte [eax-0x7FDA0070], dl ; xor al, byte [eax+eax-0x70] ; nop  ; jmp dword [0x0044327C] ;  (1 found)
0x00405947: test dword [eax+eax], eax ; add byte [eax], al ; add esp, 0x18 ; pop ebx ; ret  ;  (1 found)
0x00402624: test dword [eax], eax ; add byte [ebx-0x3B7CFB14], al ; adc al, 0x5B ; pop esi ; ret  ;  (1 found)
0x0040ad33: test dword [ecx-0x7C2DCE30], 0x5E5B1CC4 ; pop edi ; pop ebp ; ret  ;  (1 found)
0x00405205: test eax, 0x0F000000 ; mov dh, 0xC0 ; lea ebp, dword [edx+0x01] ; jmp dword [0x0040C8A4+eax*4] ;  (1 found)
0x00401835: test ecx, 0x45C70040 ; fmul dword [ebx] ; retn 0x0040 ;  (1 found)
0x00405204: xchg dword [ecx+0x0F000000], ebp ; mov dh, 0xC0 ; lea ebp, dword [edx+0x01] ; jmp dword [0x0040C8A4+eax*4] ;  (1 found)
0x004014a9: xchg eax, ebp ; add byte [eax], al ; nop  ; leave  ; ret  ;  (1 found)
0x0040a92c: xchg eax, ebp ; ret  ;  (1 found)
0x0040678b: xchg eax, ebp ; retn 0x7C8D ;  (1 found)
0x00402cc3: xchg eax, ebp ; retn 0xB60F ;  (1 found)
0x00401735: xchg eax, ebx ; add byte [eax], al ; nop  ; leave  ; ret  ;  (1 found)
0x00401456: xchg eax, edi ; add byte [eax], al ; sub esp, 0x04 ; leave  ; ret  ;  (1 found)
0x0040172f: xchg eax, edx ; rol dword [eax+0x00], 0xFFFFFFE8 ; sbb byte [ebx-0x36700000], dl ; ret  ;  (1 found)
0x004015c3: xchg eax, esp ; add byte [eax], al ; leave  ; ret  ;  (1 found)
0x0040162d: xchg eax, esp ; add byte [eax], al ; nop  ; leave  ; ret  ;  (1 found)
0x0040344d: xchg eax, esp ; ret  ;  (1 found)
0x00406a6c: xchg eax, esp ; retn 0xEA83 ;  (1 found)
0x00402caa: xchg eax, esp ; rol dword [ebp-0x76288A2E], 0xFFFFFFD0 ; pop ebx ; pop esi ; ret  ;  (1 found)
0x0040aa8a: xchg eax, esp ; xor al, byte [eax+eax-0x70] ; nop  ; jmp dword [0x00443290] ;  (1 found)
0x00401e76: xchg ebx, esp ; dec ecx ; ret  ;  (1 found)
0x00401e7d: xchg edx, ebx ; cmp ebx, eax ; ret  ;  (1 found)
0x00402caf: xlatb  ; mov eax, edx ; pop ebx ; pop esi ; ret  ;  (1 found)
0x00402610: xor al, 0x24 ; call eax ;  (1 found)
0x004081a8: xor al, 0x29 ; add byte [eax], al ; mov dword [eax], 0x0000002A ; mov eax, 0xFFFFFFFF ; add esp, 0x4C ; ret  ;  (1 found)
0x00407dcd: xor al, 0x5B ; pop esi ; ret  ;  (1 found)
0x00407f00: xor al, 0x5B ; pop esi ; ret  ;  (1 found)
0x00409e02: xor al, 0x83 ; les ecx,  [ebx+ebx*2+0x5E] ; pop edi ; pop ebp ; ret  ;  (1 found)
0x00407d99: xor al, 0xB8 ; add al, byte [eax] ; add byte [eax], al ; pop ebx ; pop esi ; ret  ;  (1 found)
0x00407db6: xor al, 0xB8 ; add dword [eax], eax ; add byte [eax], al ; pop ebx ; pop esi ; ret  ;  (1 found)
0x0040ab5b: xor al, byte [eax+eax-0x70] ; nop  ; jmp dword [0x004431FC] ;  (1 found)
0x0040ab53: xor al, byte [eax+eax-0x70] ; nop  ; jmp dword [0x00443200] ;  (1 found)
0x0040ab4b: xor al, byte [eax+eax-0x70] ; nop  ; jmp dword [0x00443204] ;  (1 found)
0x0040ab43: xor al, byte [eax+eax-0x70] ; nop  ; jmp dword [0x00443208] ;  (1 found)
0x0040ab3b: xor al, byte [eax+eax-0x70] ; nop  ; jmp dword [0x0044320C] ;  (1 found)
0x0040ab33: xor al, byte [eax+eax-0x70] ; nop  ; jmp dword [0x00443210] ;  (1 found)
0x0040ab2b: xor al, byte [eax+eax-0x70] ; nop  ; jmp dword [0x00443214] ;  (1 found)
0x0040ab23: xor al, byte [eax+eax-0x70] ; nop  ; jmp dword [0x00443218] ;  (1 found)
0x0040ab1b: xor al, byte [eax+eax-0x70] ; nop  ; jmp dword [0x0044321C] ;  (1 found)
0x0040ab13: xor al, byte [eax+eax-0x70] ; nop  ; jmp dword [0x00443220] ;  (1 found)
0x0040ab0b: xor al, byte [eax+eax-0x70] ; nop  ; jmp dword [0x00443224] ;  (1 found)
0x0040ae53: xor al, byte [eax+eax-0x70] ; nop  ; jmp dword [0x0044322C] ;  (1 found)
0x0040ab03: xor al, byte [eax+eax-0x70] ; nop  ; jmp dword [0x00443238] ;  (1 found)
0x0040aafb: xor al, byte [eax+eax-0x70] ; nop  ; jmp dword [0x00443240] ;  (1 found)
0x0040aaf3: xor al, byte [eax+eax-0x70] ; nop  ; jmp dword [0x00443244] ;  (1 found)
0x0040aaeb: xor al, byte [eax+eax-0x70] ; nop  ; jmp dword [0x0044324C] ;  (1 found)
0x0040aae3: xor al, byte [eax+eax-0x70] ; nop  ; jmp dword [0x00443250] ;  (1 found)
0x0040aadb: xor al, byte [eax+eax-0x70] ; nop  ; jmp dword [0x00443254] ;  (1 found)
0x0040aad3: xor al, byte [eax+eax-0x70] ; nop  ; jmp dword [0x0044325C] ;  (1 found)
0x0040aacb: xor al, byte [eax+eax-0x70] ; nop  ; jmp dword [0x00443264] ;  (1 found)
0x0040aac3: xor al, byte [eax+eax-0x70] ; nop  ; jmp dword [0x00443270] ;  (1 found)
0x0040aabb: xor al, byte [eax+eax-0x70] ; nop  ; jmp dword [0x00443274] ;  (1 found)
0x0040aab3: xor al, byte [eax+eax-0x70] ; nop  ; jmp dword [0x0044327C] ;  (1 found)
0x0040aaab: xor al, byte [eax+eax-0x70] ; nop  ; jmp dword [0x00443280] ;  (1 found)
0x0040aaa3: xor al, byte [eax+eax-0x70] ; nop  ; jmp dword [0x00443284] ;  (1 found)
0x0040aa9b: xor al, byte [eax+eax-0x70] ; nop  ; jmp dword [0x00443288] ;  (1 found)
0x0040aa93: xor al, byte [eax+eax-0x70] ; nop  ; jmp dword [0x0044328C] ;  (1 found)
0x0040aa8b: xor al, byte [eax+eax-0x70] ; nop  ; jmp dword [0x00443290] ;  (1 found)
0x0040aa83: xor al, byte [eax+eax-0x70] ; nop  ; jmp dword [0x00443294] ;  (1 found)
0x0040aa7b: xor al, byte [eax+eax-0x70] ; nop  ; jmp dword [0x00443298] ;  (1 found)
0x0040aa73: xor al, byte [eax+eax-0x70] ; nop  ; jmp dword [0x0044329C] ;  (1 found)
0x0040aa6b: xor al, byte [eax+eax-0x70] ; nop  ; jmp dword [0x004432A0] ;  (1 found)
0x0040aa63: xor al, byte [eax+eax-0x70] ; nop  ; jmp dword [0x004432A4] ;  (1 found)
0x0040aa5b: xor al, byte [eax+eax-0x70] ; nop  ; jmp dword [0x004432A8] ;  (1 found)
0x0040aa53: xor al, byte [eax+eax-0x70] ; nop  ; jmp dword [0x004432AC] ;  (1 found)
0x0040aa4b: xor al, byte [eax+eax-0x70] ; nop  ; jmp dword [0x004432B0] ;  (1 found)
0x0040aa43: xor al, byte [eax+eax-0x70] ; nop  ; jmp dword [0x004432B4] ;  (1 found)
0x0040aa3b: xor al, byte [eax+eax-0x70] ; nop  ; jmp dword [0x004432B8] ;  (1 found)
0x0040aa33: xor al, byte [eax+eax-0x70] ; nop  ; jmp dword [0x004432BC] ;  (1 found)
0x0040aa2b: xor al, byte [eax+eax-0x70] ; nop  ; jmp dword [0x004432C0] ;  (1 found)
0x0040aa23: xor al, byte [eax+eax-0x70] ; nop  ; jmp dword [0x004432C4] ;  (1 found)
0x0040aa1b: xor al, byte [eax+eax-0x70] ; nop  ; jmp dword [0x004432C8] ;  (1 found)
0x0040aa13: xor al, byte [eax+eax-0x70] ; nop  ; jmp dword [0x004432CC] ;  (1 found)
0x0040aa0b: xor al, byte [eax+eax-0x70] ; nop  ; jmp dword [0x004432D0] ;  (1 found)
0x0040aa03: xor al, byte [eax+eax-0x70] ; nop  ; jmp dword [0x004432D4] ;  (1 found)
0x0040a9fb: xor al, byte [eax+eax-0x70] ; nop  ; jmp dword [0x004432D8] ;  (1 found)
0x0040a9f3: xor al, byte [eax+eax-0x70] ; nop  ; jmp dword [0x004432DC] ;  (1 found)
0x0040a9eb: xor al, byte [eax+eax-0x70] ; nop  ; jmp dword [0x004432E0] ;  (1 found)
0x0040a9e3: xor al, byte [eax+eax-0x70] ; nop  ; jmp dword [0x004432E4] ;  (1 found)
0x00401f83: xor al, byte [eax+eax-0x70] ; nop  ; jmp dword [0x004432F0] ;  (1 found)
0x00401f7b: xor al, byte [eax+eax-0x70] ; nop  ; jmp dword [0x004432F4] ;  (1 found)
0x00401f73: xor al, byte [eax+eax-0x70] ; nop  ; jmp dword [0x004432F8] ;  (1 found)
0x0040aad2: xor al, byte [fs:eax+eax-0x70] ; nop  ; jmp dword [0x0044325C] ;  (1 found)
0x00402376: xor byte [ebx+eax-0x7D], 0xFFFFFFC8 ; add dh, bh ; retn 0x0000 ;  (1 found)
0x0040aab2: xor byte [edx], 0x00000044 ; add byte [eax+0x7C25FF90], dl ; xor al, byte [eax+eax-0x70] ; nop  ; jmp dword [0x00443274] ;  (1 found)
0x004033d2: xor dh, byte [esi+0x00] ; add byte [ecx], al ; fdivr dword [ecx] ; ret  ;  (1 found)
0x0040abcb: xor dword [eax+eax-0x70], eax ; nop  ; jmp dword [0x004431C4] ;  (1 found)
0x0040abc3: xor dword [eax+eax-0x70], eax ; nop  ; jmp dword [0x004431C8] ;  (1 found)
0x0040abbb: xor dword [eax+eax-0x70], eax ; nop  ; jmp dword [0x004431CC] ;  (1 found)
0x0040abb3: xor dword [eax+eax-0x70], eax ; nop  ; jmp dword [0x004431D0] ;  (1 found)
0x0040abab: xor dword [eax+eax-0x70], eax ; nop  ; jmp dword [0x004431D4] ;  (1 found)
0x0040aba3: xor dword [eax+eax-0x70], eax ; nop  ; jmp dword [0x004431D8] ;  (1 found)
0x0040ab9b: xor dword [eax+eax-0x70], eax ; nop  ; jmp dword [0x004431DC] ;  (1 found)
0x0040ab93: xor dword [eax+eax-0x70], eax ; nop  ; jmp dword [0x004431E0] ;  (1 found)
0x0040ab8b: xor dword [eax+eax-0x70], eax ; nop  ; jmp dword [0x004431E4] ;  (1 found)
0x0040ab83: xor dword [eax+eax-0x70], eax ; nop  ; jmp dword [0x004431E8] ;  (1 found)
0x0040ab7b: xor dword [eax+eax-0x70], eax ; nop  ; jmp dword [0x004431EC] ;  (1 found)
0x0040ab73: xor dword [eax+eax-0x70], eax ; nop  ; jmp dword [0x004431F0] ;  (1 found)
0x0040ab6b: xor dword [eax+eax-0x70], eax ; nop  ; jmp dword [0x004431F4] ;  (1 found)
0x0040ab63: xor dword [eax+eax-0x70], eax ; nop  ; jmp dword [0x004431F8] ;  (1 found)
0x00402623: xor dword [ebp-0x137D0000], eax ; add al, 0x83 ; les edx,  [ebx+ebx*2] ; pop esi ; ret  ;  (1 found)
0x00405202: xor dword [edi], ecx ; xchg dword [ecx+0x0F000000], ebp ; mov dh, 0xC0 ; lea ebp, dword [edx+0x01] ; jmp dword [0x0040C8A4+eax*4] ;  (1 found)
0x00401f6b: xor eax, dword [eax+eax-0x70] ; nop  ; jmp dword [0x004432FC] ;  (1 found)
0x00401f63: xor eax, dword [eax+eax-0x70] ; nop  ; jmp dword [0x00443300] ;  (1 found)
0x00401f5b: xor eax, dword [eax+eax-0x70] ; nop  ; jmp dword [0x00443304] ;  (1 found)
0x00401f53: xor eax, dword [eax+eax-0x70] ; nop  ; jmp dword [0x00443308] ;  (1 found)
0x00401f4b: xor eax, dword [eax+eax-0x70] ; nop  ; jmp dword [0x0044330C] ;  (1 found)
0x00401f43: xor eax, dword [eax+eax-0x70] ; nop  ; jmp dword [0x00443310] ;  (1 found)
0x00401f3b: xor eax, dword [eax+eax-0x70] ; nop  ; jmp dword [0x00443314] ;  (1 found)
0x00401f33: xor eax, dword [eax+eax-0x70] ; nop  ; jmp dword [0x00443318] ;  (1 found)
0x00402d4e: xor eax, eax ; add esp, 0x14 ; pop ebx ; pop esi ; ret  ;  (1 found)
0x00402d4d: xor eax, eax ; add esp, 0x14 ; pop ebx ; pop esi ; ret  ;  (1 found)
0x004050b9: xor eax, eax ; add esp, 0x18 ; pop ebx ; ret  ;  (1 found)
0x00402b7f: xor eax, eax ; add esp, 0x1C ; ret  ;  (1 found)
0x00401050: xor eax, eax ; add esp, 0x1C ; retn 0x0004 ;  (1 found)
0x00407dc9: xor eax, eax ; add esp, 0x34 ; pop ebx ; pop esi ; ret  ;  (1 found)
0x00402ee7: xor eax, eax ; pop ebx ; pop esi ; pop edi ; pop ebp ; ret  ;  (1 found)
0x0040329a: xor eax, eax ; pop ebx ; pop esi ; pop edi ; ret  ;  (1 found)
0x00407e43: xor eax, eax ; pop ebx ; pop esi ; ret  ;  (1 found)
0x004026d4: xor eax, eax ; pop ebx ; ret  ;  (1 found)
0x00402722: xor eax, eax ; pop ebx ; ret  ;  (1 found)
0x00409b3a: xor eax, eax ; pop ebx ; ret  ;  (1 found)
0x004025c0: xor eax, eax ; ret  ;  (1 found)
0x00402d60: xor eax, eax ; ret  ;  (1 found)
0x004058a6: xor edx, edx ; mov eax, edx ; pop ebx ; pop esi ; ret  ;  (1 found)
0x00402cea: xor edx, edx ; mov eax, edx ; ret  ;  (1 found)
